ARM GAS  /tmp/ccYPPKI6.s 			page 1


   1              		.cpu cortex-m4
   2              		.eabi_attribute 27, 1
   3              		.eabi_attribute 28, 1
   4              		.eabi_attribute 20, 1
   5              		.eabi_attribute 21, 1
   6              		.eabi_attribute 23, 3
   7              		.eabi_attribute 24, 1
   8              		.eabi_attribute 25, 1
   9              		.eabi_attribute 26, 1
  10              		.eabi_attribute 30, 1
  11              		.eabi_attribute 34, 1
  12              		.eabi_attribute 18, 4
  13              		.file	"stm32f4xx_hal_tim_ex.c"
  14              		.text
  15              		.section	.text.TIM_CCxNChannelCmd,"ax",%progbits
  16              		.align	1
  17              		.arch armv7e-m
  18              		.syntax unified
  19              		.thumb
  20              		.thumb_func
  21              		.fpu fpv4-sp-d16
  23              	TIM_CCxNChannelCmd:
  24              		@ args = 0, pretend = 0, frame = 0
  25              		@ frame_needed = 0, uses_anonymous_args = 0
  26              		@ link register save eliminated.
  27 0000 01F01F01 		and	r1, r1, #31
  28 0004 0423     		movs	r3, #4
  29 0006 03FA01FC 		lsl	ip, r3, r1
  30 000a 036A     		ldr	r3, [r0, #32]
  31 000c 23EA0C03 		bic	r3, r3, ip
  32 0010 0362     		str	r3, [r0, #32]
  33 0012 036A     		ldr	r3, [r0, #32]
  34 0014 02FA01F1 		lsl	r1, r2, r1
  35 0018 0B43     		orrs	r3, r3, r1
  36 001a 0362     		str	r3, [r0, #32]
  37 001c 7047     		bx	lr
  39              		.section	.text.TIM_DMAErrorCCxN,"ax",%progbits
  40              		.align	1
  41              		.syntax unified
  42              		.thumb
  43              		.thumb_func
  44              		.fpu fpv4-sp-d16
  46              	TIM_DMAErrorCCxN:
  47              		@ args = 0, pretend = 0, frame = 0
  48              		@ frame_needed = 0, uses_anonymous_args = 0
  49 0000 10B5     		push	{r4, lr}
  50 0002 846B     		ldr	r4, [r0, #56]
  51 0004 636A     		ldr	r3, [r4, #36]
  52 0006 8342     		cmp	r3, r0
  53 0008 0BD0     		beq	.L7
  54 000a A36A     		ldr	r3, [r4, #40]
  55 000c 8342     		cmp	r3, r0
  56 000e 0DD0     		beq	.L8
  57 0010 E36A     		ldr	r3, [r4, #44]
  58 0012 8342     		cmp	r3, r0
  59 0014 10D0     		beq	.L9
  60              	.L4:
ARM GAS  /tmp/ccYPPKI6.s 			page 2


  61 0016 2046     		mov	r0, r4
  62 0018 FFF7FEFF 		bl	HAL_TIM_ErrorCallback
  63 001c 0023     		movs	r3, #0
  64 001e 2377     		strb	r3, [r4, #28]
  65 0020 10BD     		pop	{r4, pc}
  66              	.L7:
  67 0022 0123     		movs	r3, #1
  68 0024 2377     		strb	r3, [r4, #28]
  69 0026 84F84230 		strb	r3, [r4, #66]
  70 002a F4E7     		b	.L4
  71              	.L8:
  72 002c 0223     		movs	r3, #2
  73 002e 2377     		strb	r3, [r4, #28]
  74 0030 0123     		movs	r3, #1
  75 0032 84F84330 		strb	r3, [r4, #67]
  76 0036 EEE7     		b	.L4
  77              	.L9:
  78 0038 0423     		movs	r3, #4
  79 003a 2377     		strb	r3, [r4, #28]
  80 003c 0123     		movs	r3, #1
  81 003e 84F84430 		strb	r3, [r4, #68]
  82 0042 E8E7     		b	.L4
  84              		.section	.text.TIM_DMADelayPulseNCplt,"ax",%progbits
  85              		.align	1
  86              		.syntax unified
  87              		.thumb
  88              		.thumb_func
  89              		.fpu fpv4-sp-d16
  91              	TIM_DMADelayPulseNCplt:
  92              		@ args = 0, pretend = 0, frame = 0
  93              		@ frame_needed = 0, uses_anonymous_args = 0
  94 0000 10B5     		push	{r4, lr}
  95 0002 846B     		ldr	r4, [r0, #56]
  96 0004 636A     		ldr	r3, [r4, #36]
  97 0006 8342     		cmp	r3, r0
  98 0008 0ED0     		beq	.L16
  99 000a A36A     		ldr	r3, [r4, #40]
 100 000c 8342     		cmp	r3, r0
 101 000e 14D0     		beq	.L17
 102 0010 E36A     		ldr	r3, [r4, #44]
 103 0012 8342     		cmp	r3, r0
 104 0014 1AD0     		beq	.L18
 105 0016 236B     		ldr	r3, [r4, #48]
 106 0018 8342     		cmp	r3, r0
 107 001a 20D0     		beq	.L19
 108              	.L12:
 109 001c 2046     		mov	r0, r4
 110 001e FFF7FEFF 		bl	HAL_TIM_PWM_PulseFinishedCallback
 111 0022 0023     		movs	r3, #0
 112 0024 2377     		strb	r3, [r4, #28]
 113 0026 10BD     		pop	{r4, pc}
 114              	.L16:
 115 0028 0123     		movs	r3, #1
 116 002a 2377     		strb	r3, [r4, #28]
 117 002c C369     		ldr	r3, [r0, #28]
 118 002e 002B     		cmp	r3, #0
 119 0030 F4D1     		bne	.L12
ARM GAS  /tmp/ccYPPKI6.s 			page 3


 120 0032 0123     		movs	r3, #1
 121 0034 84F84230 		strb	r3, [r4, #66]
 122 0038 F0E7     		b	.L12
 123              	.L17:
 124 003a 0223     		movs	r3, #2
 125 003c 2377     		strb	r3, [r4, #28]
 126 003e C369     		ldr	r3, [r0, #28]
 127 0040 002B     		cmp	r3, #0
 128 0042 EBD1     		bne	.L12
 129 0044 0123     		movs	r3, #1
 130 0046 84F84330 		strb	r3, [r4, #67]
 131 004a E7E7     		b	.L12
 132              	.L18:
 133 004c 0423     		movs	r3, #4
 134 004e 2377     		strb	r3, [r4, #28]
 135 0050 C369     		ldr	r3, [r0, #28]
 136 0052 002B     		cmp	r3, #0
 137 0054 E2D1     		bne	.L12
 138 0056 0123     		movs	r3, #1
 139 0058 84F84430 		strb	r3, [r4, #68]
 140 005c DEE7     		b	.L12
 141              	.L19:
 142 005e 0823     		movs	r3, #8
 143 0060 2377     		strb	r3, [r4, #28]
 144 0062 C369     		ldr	r3, [r0, #28]
 145 0064 002B     		cmp	r3, #0
 146 0066 D9D1     		bne	.L12
 147 0068 0123     		movs	r3, #1
 148 006a 84F84530 		strb	r3, [r4, #69]
 149 006e D5E7     		b	.L12
 151              		.section	.text.HAL_TIMEx_HallSensor_MspInit,"ax",%progbits
 152              		.align	1
 153              		.weak	HAL_TIMEx_HallSensor_MspInit
 154              		.syntax unified
 155              		.thumb
 156              		.thumb_func
 157              		.fpu fpv4-sp-d16
 159              	HAL_TIMEx_HallSensor_MspInit:
 160              		@ args = 0, pretend = 0, frame = 0
 161              		@ frame_needed = 0, uses_anonymous_args = 0
 162              		@ link register save eliminated.
 163 0000 7047     		bx	lr
 165              		.section	.text.HAL_TIMEx_HallSensor_Init,"ax",%progbits
 166              		.align	1
 167              		.global	HAL_TIMEx_HallSensor_Init
 168              		.syntax unified
 169              		.thumb
 170              		.thumb_func
 171              		.fpu fpv4-sp-d16
 173              	HAL_TIMEx_HallSensor_Init:
 174              		@ args = 0, pretend = 0, frame = 32
 175              		@ frame_needed = 0, uses_anonymous_args = 0
 176 0000 0028     		cmp	r0, #0
 177 0002 65D0     		beq	.L24
 178 0004 70B5     		push	{r4, r5, r6, lr}
 179 0006 88B0     		sub	sp, sp, #32
 180 0008 0E46     		mov	r6, r1
ARM GAS  /tmp/ccYPPKI6.s 			page 4


 181 000a 0446     		mov	r4, r0
 182 000c 90F83D30 		ldrb	r3, [r0, #61]	@ zero_extendqisi2
 183 0010 002B     		cmp	r3, #0
 184 0012 58D0     		beq	.L29
 185              	.L23:
 186 0014 0223     		movs	r3, #2
 187 0016 84F83D30 		strb	r3, [r4, #61]
 188 001a 2146     		mov	r1, r4
 189 001c 51F8040B 		ldr	r0, [r1], #4
 190 0020 FFF7FEFF 		bl	TIM_Base_SetConfig
 191 0024 B368     		ldr	r3, [r6, #8]
 192 0026 0322     		movs	r2, #3
 193 0028 3168     		ldr	r1, [r6]
 194 002a 2068     		ldr	r0, [r4]
 195 002c FFF7FEFF 		bl	TIM_TI1_SetConfig
 196 0030 2268     		ldr	r2, [r4]
 197 0032 9369     		ldr	r3, [r2, #24]
 198 0034 23F00C03 		bic	r3, r3, #12
 199 0038 9361     		str	r3, [r2, #24]
 200 003a 2268     		ldr	r2, [r4]
 201 003c 9369     		ldr	r3, [r2, #24]
 202 003e 7168     		ldr	r1, [r6, #4]
 203 0040 0B43     		orrs	r3, r3, r1
 204 0042 9361     		str	r3, [r2, #24]
 205 0044 2268     		ldr	r2, [r4]
 206 0046 5368     		ldr	r3, [r2, #4]
 207 0048 43F08003 		orr	r3, r3, #128
 208 004c 5360     		str	r3, [r2, #4]
 209 004e 2268     		ldr	r2, [r4]
 210 0050 9368     		ldr	r3, [r2, #8]
 211 0052 23F07003 		bic	r3, r3, #112
 212 0056 9360     		str	r3, [r2, #8]
 213 0058 2268     		ldr	r2, [r4]
 214 005a 9368     		ldr	r3, [r2, #8]
 215 005c 43F04003 		orr	r3, r3, #64
 216 0060 9360     		str	r3, [r2, #8]
 217 0062 2268     		ldr	r2, [r4]
 218 0064 9368     		ldr	r3, [r2, #8]
 219 0066 23F00703 		bic	r3, r3, #7
 220 006a 9360     		str	r3, [r2, #8]
 221 006c 2268     		ldr	r2, [r4]
 222 006e 9368     		ldr	r3, [r2, #8]
 223 0070 43F00403 		orr	r3, r3, #4
 224 0074 9360     		str	r3, [r2, #8]
 225 0076 0025     		movs	r5, #0
 226 0078 0595     		str	r5, [sp, #20]
 227 007a 0695     		str	r5, [sp, #24]
 228 007c 7023     		movs	r3, #112
 229 007e 0193     		str	r3, [sp, #4]
 230 0080 0795     		str	r5, [sp, #28]
 231 0082 0495     		str	r5, [sp, #16]
 232 0084 0395     		str	r5, [sp, #12]
 233 0086 F368     		ldr	r3, [r6, #12]
 234 0088 0293     		str	r3, [sp, #8]
 235 008a 01A9     		add	r1, sp, #4
 236 008c 2068     		ldr	r0, [r4]
 237 008e FFF7FEFF 		bl	TIM_OC2_SetConfig
ARM GAS  /tmp/ccYPPKI6.s 			page 5


 238 0092 2268     		ldr	r2, [r4]
 239 0094 5368     		ldr	r3, [r2, #4]
 240 0096 23F07003 		bic	r3, r3, #112
 241 009a 5360     		str	r3, [r2, #4]
 242 009c 2268     		ldr	r2, [r4]
 243 009e 5368     		ldr	r3, [r2, #4]
 244 00a0 43F05003 		orr	r3, r3, #80
 245 00a4 5360     		str	r3, [r2, #4]
 246 00a6 0123     		movs	r3, #1
 247 00a8 84F84630 		strb	r3, [r4, #70]
 248 00ac 84F83E30 		strb	r3, [r4, #62]
 249 00b0 84F83F30 		strb	r3, [r4, #63]
 250 00b4 84F84230 		strb	r3, [r4, #66]
 251 00b8 84F84330 		strb	r3, [r4, #67]
 252 00bc 84F83D30 		strb	r3, [r4, #61]
 253 00c0 2846     		mov	r0, r5
 254 00c2 08B0     		add	sp, sp, #32
 255              		@ sp needed
 256 00c4 70BD     		pop	{r4, r5, r6, pc}
 257              	.L29:
 258 00c6 80F83C30 		strb	r3, [r0, #60]
 259 00ca FFF7FEFF 		bl	HAL_TIMEx_HallSensor_MspInit
 260 00ce A1E7     		b	.L23
 261              	.L24:
 262 00d0 0120     		movs	r0, #1
 263 00d2 7047     		bx	lr
 265              		.section	.text.HAL_TIMEx_HallSensor_MspDeInit,"ax",%progbits
 266              		.align	1
 267              		.weak	HAL_TIMEx_HallSensor_MspDeInit
 268              		.syntax unified
 269              		.thumb
 270              		.thumb_func
 271              		.fpu fpv4-sp-d16
 273              	HAL_TIMEx_HallSensor_MspDeInit:
 274              		@ args = 0, pretend = 0, frame = 0
 275              		@ frame_needed = 0, uses_anonymous_args = 0
 276              		@ link register save eliminated.
 277 0000 7047     		bx	lr
 279              		.section	.text.HAL_TIMEx_HallSensor_DeInit,"ax",%progbits
 280              		.align	1
 281              		.global	HAL_TIMEx_HallSensor_DeInit
 282              		.syntax unified
 283              		.thumb
 284              		.thumb_func
 285              		.fpu fpv4-sp-d16
 287              	HAL_TIMEx_HallSensor_DeInit:
 288              		@ args = 0, pretend = 0, frame = 0
 289              		@ frame_needed = 0, uses_anonymous_args = 0
 290 0000 10B5     		push	{r4, lr}
 291 0002 0446     		mov	r4, r0
 292 0004 0223     		movs	r3, #2
 293 0006 80F83D30 		strb	r3, [r0, #61]
 294 000a 0368     		ldr	r3, [r0]
 295 000c 196A     		ldr	r1, [r3, #32]
 296 000e 41F21112 		movw	r2, #4369
 297 0012 1142     		tst	r1, r2
 298 0014 08D1     		bne	.L32
ARM GAS  /tmp/ccYPPKI6.s 			page 6


 299 0016 196A     		ldr	r1, [r3, #32]
 300 0018 40F24442 		movw	r2, #1092
 301 001c 1142     		tst	r1, r2
 302 001e 03D1     		bne	.L32
 303 0020 1A68     		ldr	r2, [r3]
 304 0022 22F00102 		bic	r2, r2, #1
 305 0026 1A60     		str	r2, [r3]
 306              	.L32:
 307 0028 2046     		mov	r0, r4
 308 002a FFF7FEFF 		bl	HAL_TIMEx_HallSensor_MspDeInit
 309 002e 0020     		movs	r0, #0
 310 0030 84F84600 		strb	r0, [r4, #70]
 311 0034 84F83E00 		strb	r0, [r4, #62]
 312 0038 84F83F00 		strb	r0, [r4, #63]
 313 003c 84F84200 		strb	r0, [r4, #66]
 314 0040 84F84300 		strb	r0, [r4, #67]
 315 0044 84F83D00 		strb	r0, [r4, #61]
 316 0048 84F83C00 		strb	r0, [r4, #60]
 317 004c 10BD     		pop	{r4, pc}
 319              		.section	.text.HAL_TIMEx_HallSensor_Start,"ax",%progbits
 320              		.align	1
 321              		.global	HAL_TIMEx_HallSensor_Start
 322              		.syntax unified
 323              		.thumb
 324              		.thumb_func
 325              		.fpu fpv4-sp-d16
 327              	HAL_TIMEx_HallSensor_Start:
 328              		@ args = 0, pretend = 0, frame = 0
 329              		@ frame_needed = 0, uses_anonymous_args = 0
 330 0000 10B5     		push	{r4, lr}
 331 0002 0446     		mov	r4, r0
 332 0004 90F83E00 		ldrb	r0, [r0, #62]	@ zero_extendqisi2
 333 0008 C0B2     		uxtb	r0, r0
 334 000a 94F83F30 		ldrb	r3, [r4, #63]	@ zero_extendqisi2
 335 000e 94F84220 		ldrb	r2, [r4, #66]	@ zero_extendqisi2
 336 0012 94F84310 		ldrb	r1, [r4, #67]	@ zero_extendqisi2
 337 0016 0128     		cmp	r0, #1
 338 0018 47D1     		bne	.L38
 339 001a DBB2     		uxtb	r3, r3
 340 001c D2B2     		uxtb	r2, r2
 341 001e C9B2     		uxtb	r1, r1
 342 0020 012B     		cmp	r3, #1
 343 0022 43D1     		bne	.L35
 344 0024 012A     		cmp	r2, #1
 345 0026 42D1     		bne	.L39
 346 0028 0129     		cmp	r1, #1
 347 002a 01D0     		beq	.L43
 348 002c 1046     		mov	r0, r2
 349 002e 3DE0     		b	.L35
 350              	.L43:
 351 0030 0223     		movs	r3, #2
 352 0032 84F83E30 		strb	r3, [r4, #62]
 353 0036 84F83F30 		strb	r3, [r4, #63]
 354 003a 84F84230 		strb	r3, [r4, #66]
 355 003e 84F84330 		strb	r3, [r4, #67]
 356 0042 0021     		movs	r1, #0
 357 0044 2068     		ldr	r0, [r4]
ARM GAS  /tmp/ccYPPKI6.s 			page 7


 358 0046 FFF7FEFF 		bl	TIM_CCxChannelCmd
 359 004a 2368     		ldr	r3, [r4]
 360 004c 1A4A     		ldr	r2, .L44
 361 004e 9342     		cmp	r3, r2
 362 0050 20D0     		beq	.L36
 363 0052 B3F1804F 		cmp	r3, #1073741824
 364 0056 1DD0     		beq	.L36
 365 0058 A2F57C42 		sub	r2, r2, #64512
 366 005c 9342     		cmp	r3, r2
 367 005e 19D0     		beq	.L36
 368 0060 02F58062 		add	r2, r2, #1024
 369 0064 9342     		cmp	r3, r2
 370 0066 15D0     		beq	.L36
 371 0068 02F58062 		add	r2, r2, #1024
 372 006c 9342     		cmp	r3, r2
 373 006e 11D0     		beq	.L36
 374 0070 02F57842 		add	r2, r2, #63488
 375 0074 9342     		cmp	r3, r2
 376 0076 0DD0     		beq	.L36
 377 0078 02F57052 		add	r2, r2, #15360
 378 007c 9342     		cmp	r3, r2
 379 007e 09D0     		beq	.L36
 380 0080 A2F59432 		sub	r2, r2, #75776
 381 0084 9342     		cmp	r3, r2
 382 0086 05D0     		beq	.L36
 383 0088 1A68     		ldr	r2, [r3]
 384 008a 42F00102 		orr	r2, r2, #1
 385 008e 1A60     		str	r2, [r3]
 386 0090 0020     		movs	r0, #0
 387 0092 0BE0     		b	.L35
 388              	.L36:
 389 0094 9A68     		ldr	r2, [r3, #8]
 390 0096 02F00702 		and	r2, r2, #7
 391 009a 062A     		cmp	r2, #6
 392 009c 09D0     		beq	.L41
 393 009e 1A68     		ldr	r2, [r3]
 394 00a0 42F00102 		orr	r2, r2, #1
 395 00a4 1A60     		str	r2, [r3]
 396 00a6 0020     		movs	r0, #0
 397 00a8 00E0     		b	.L35
 398              	.L38:
 399 00aa 0120     		movs	r0, #1
 400              	.L35:
 401 00ac 10BD     		pop	{r4, pc}
 402              	.L39:
 403 00ae 1846     		mov	r0, r3
 404 00b0 FCE7     		b	.L35
 405              	.L41:
 406 00b2 0020     		movs	r0, #0
 407 00b4 FAE7     		b	.L35
 408              	.L45:
 409 00b6 00BF     		.align	2
 410              	.L44:
 411 00b8 00000140 		.word	1073807360
 413              		.section	.text.HAL_TIMEx_HallSensor_Stop,"ax",%progbits
 414              		.align	1
 415              		.global	HAL_TIMEx_HallSensor_Stop
ARM GAS  /tmp/ccYPPKI6.s 			page 8


 416              		.syntax unified
 417              		.thumb
 418              		.thumb_func
 419              		.fpu fpv4-sp-d16
 421              	HAL_TIMEx_HallSensor_Stop:
 422              		@ args = 0, pretend = 0, frame = 0
 423              		@ frame_needed = 0, uses_anonymous_args = 0
 424 0000 10B5     		push	{r4, lr}
 425 0002 0446     		mov	r4, r0
 426 0004 0022     		movs	r2, #0
 427 0006 1146     		mov	r1, r2
 428 0008 0068     		ldr	r0, [r0]
 429 000a FFF7FEFF 		bl	TIM_CCxChannelCmd
 430 000e 2368     		ldr	r3, [r4]
 431 0010 196A     		ldr	r1, [r3, #32]
 432 0012 41F21112 		movw	r2, #4369
 433 0016 1142     		tst	r1, r2
 434 0018 08D1     		bne	.L47
 435 001a 196A     		ldr	r1, [r3, #32]
 436 001c 40F24442 		movw	r2, #1092
 437 0020 1142     		tst	r1, r2
 438 0022 03D1     		bne	.L47
 439 0024 1A68     		ldr	r2, [r3]
 440 0026 22F00102 		bic	r2, r2, #1
 441 002a 1A60     		str	r2, [r3]
 442              	.L47:
 443 002c 0123     		movs	r3, #1
 444 002e 84F83E30 		strb	r3, [r4, #62]
 445 0032 84F83F30 		strb	r3, [r4, #63]
 446 0036 84F84230 		strb	r3, [r4, #66]
 447 003a 84F84330 		strb	r3, [r4, #67]
 448 003e 0020     		movs	r0, #0
 449 0040 10BD     		pop	{r4, pc}
 451              		.section	.text.HAL_TIMEx_HallSensor_Start_IT,"ax",%progbits
 452              		.align	1
 453              		.global	HAL_TIMEx_HallSensor_Start_IT
 454              		.syntax unified
 455              		.thumb
 456              		.thumb_func
 457              		.fpu fpv4-sp-d16
 459              	HAL_TIMEx_HallSensor_Start_IT:
 460              		@ args = 0, pretend = 0, frame = 0
 461              		@ frame_needed = 0, uses_anonymous_args = 0
 462 0000 10B5     		push	{r4, lr}
 463 0002 0446     		mov	r4, r0
 464 0004 90F83E00 		ldrb	r0, [r0, #62]	@ zero_extendqisi2
 465 0008 C0B2     		uxtb	r0, r0
 466 000a 94F83F30 		ldrb	r3, [r4, #63]	@ zero_extendqisi2
 467 000e 94F84220 		ldrb	r2, [r4, #66]	@ zero_extendqisi2
 468 0012 94F84310 		ldrb	r1, [r4, #67]	@ zero_extendqisi2
 469 0016 0128     		cmp	r0, #1
 470 0018 4DD1     		bne	.L53
 471 001a DBB2     		uxtb	r3, r3
 472 001c D2B2     		uxtb	r2, r2
 473 001e C9B2     		uxtb	r1, r1
 474 0020 012B     		cmp	r3, #1
 475 0022 49D1     		bne	.L50
ARM GAS  /tmp/ccYPPKI6.s 			page 9


 476 0024 012A     		cmp	r2, #1
 477 0026 48D1     		bne	.L54
 478 0028 0129     		cmp	r1, #1
 479 002a 01D0     		beq	.L58
 480 002c 1046     		mov	r0, r2
 481 002e 43E0     		b	.L50
 482              	.L58:
 483 0030 0223     		movs	r3, #2
 484 0032 84F83E30 		strb	r3, [r4, #62]
 485 0036 84F83F30 		strb	r3, [r4, #63]
 486 003a 84F84230 		strb	r3, [r4, #66]
 487 003e 84F84330 		strb	r3, [r4, #67]
 488 0042 2268     		ldr	r2, [r4]
 489 0044 D368     		ldr	r3, [r2, #12]
 490 0046 43F00203 		orr	r3, r3, #2
 491 004a D360     		str	r3, [r2, #12]
 492 004c 0122     		movs	r2, #1
 493 004e 0021     		movs	r1, #0
 494 0050 2068     		ldr	r0, [r4]
 495 0052 FFF7FEFF 		bl	TIM_CCxChannelCmd
 496 0056 2368     		ldr	r3, [r4]
 497 0058 1A4A     		ldr	r2, .L59
 498 005a 9342     		cmp	r3, r2
 499 005c 20D0     		beq	.L51
 500 005e B3F1804F 		cmp	r3, #1073741824
 501 0062 1DD0     		beq	.L51
 502 0064 A2F57C42 		sub	r2, r2, #64512
 503 0068 9342     		cmp	r3, r2
 504 006a 19D0     		beq	.L51
 505 006c 02F58062 		add	r2, r2, #1024
 506 0070 9342     		cmp	r3, r2
 507 0072 15D0     		beq	.L51
 508 0074 02F58062 		add	r2, r2, #1024
 509 0078 9342     		cmp	r3, r2
 510 007a 11D0     		beq	.L51
 511 007c 02F57842 		add	r2, r2, #63488
 512 0080 9342     		cmp	r3, r2
 513 0082 0DD0     		beq	.L51
 514 0084 02F57052 		add	r2, r2, #15360
 515 0088 9342     		cmp	r3, r2
 516 008a 09D0     		beq	.L51
 517 008c A2F59432 		sub	r2, r2, #75776
 518 0090 9342     		cmp	r3, r2
 519 0092 05D0     		beq	.L51
 520 0094 1A68     		ldr	r2, [r3]
 521 0096 42F00102 		orr	r2, r2, #1
 522 009a 1A60     		str	r2, [r3]
 523 009c 0020     		movs	r0, #0
 524 009e 0BE0     		b	.L50
 525              	.L51:
 526 00a0 9A68     		ldr	r2, [r3, #8]
 527 00a2 02F00702 		and	r2, r2, #7
 528 00a6 062A     		cmp	r2, #6
 529 00a8 09D0     		beq	.L56
 530 00aa 1A68     		ldr	r2, [r3]
 531 00ac 42F00102 		orr	r2, r2, #1
 532 00b0 1A60     		str	r2, [r3]
ARM GAS  /tmp/ccYPPKI6.s 			page 10


 533 00b2 0020     		movs	r0, #0
 534 00b4 00E0     		b	.L50
 535              	.L53:
 536 00b6 0120     		movs	r0, #1
 537              	.L50:
 538 00b8 10BD     		pop	{r4, pc}
 539              	.L54:
 540 00ba 1846     		mov	r0, r3
 541 00bc FCE7     		b	.L50
 542              	.L56:
 543 00be 0020     		movs	r0, #0
 544 00c0 FAE7     		b	.L50
 545              	.L60:
 546 00c2 00BF     		.align	2
 547              	.L59:
 548 00c4 00000140 		.word	1073807360
 550              		.section	.text.HAL_TIMEx_HallSensor_Stop_IT,"ax",%progbits
 551              		.align	1
 552              		.global	HAL_TIMEx_HallSensor_Stop_IT
 553              		.syntax unified
 554              		.thumb
 555              		.thumb_func
 556              		.fpu fpv4-sp-d16
 558              	HAL_TIMEx_HallSensor_Stop_IT:
 559              		@ args = 0, pretend = 0, frame = 0
 560              		@ frame_needed = 0, uses_anonymous_args = 0
 561 0000 10B5     		push	{r4, lr}
 562 0002 0446     		mov	r4, r0
 563 0004 0022     		movs	r2, #0
 564 0006 1146     		mov	r1, r2
 565 0008 0068     		ldr	r0, [r0]
 566 000a FFF7FEFF 		bl	TIM_CCxChannelCmd
 567 000e 2268     		ldr	r2, [r4]
 568 0010 D368     		ldr	r3, [r2, #12]
 569 0012 23F00203 		bic	r3, r3, #2
 570 0016 D360     		str	r3, [r2, #12]
 571 0018 2368     		ldr	r3, [r4]
 572 001a 196A     		ldr	r1, [r3, #32]
 573 001c 41F21112 		movw	r2, #4369
 574 0020 1142     		tst	r1, r2
 575 0022 08D1     		bne	.L62
 576 0024 196A     		ldr	r1, [r3, #32]
 577 0026 40F24442 		movw	r2, #1092
 578 002a 1142     		tst	r1, r2
 579 002c 03D1     		bne	.L62
 580 002e 1A68     		ldr	r2, [r3]
 581 0030 22F00102 		bic	r2, r2, #1
 582 0034 1A60     		str	r2, [r3]
 583              	.L62:
 584 0036 0123     		movs	r3, #1
 585 0038 84F83E30 		strb	r3, [r4, #62]
 586 003c 84F83F30 		strb	r3, [r4, #63]
 587 0040 84F84230 		strb	r3, [r4, #66]
 588 0044 84F84330 		strb	r3, [r4, #67]
 589 0048 0020     		movs	r0, #0
 590 004a 10BD     		pop	{r4, pc}
 592              		.section	.text.HAL_TIMEx_HallSensor_Start_DMA,"ax",%progbits
ARM GAS  /tmp/ccYPPKI6.s 			page 11


 593              		.align	1
 594              		.global	HAL_TIMEx_HallSensor_Start_DMA
 595              		.syntax unified
 596              		.thumb
 597              		.thumb_func
 598              		.fpu fpv4-sp-d16
 600              	HAL_TIMEx_HallSensor_Start_DMA:
 601              		@ args = 0, pretend = 0, frame = 0
 602              		@ frame_needed = 0, uses_anonymous_args = 0
 603 0000 F8B5     		push	{r3, r4, r5, r6, r7, lr}
 604 0002 0446     		mov	r4, r0
 605 0004 90F83EC0 		ldrb	ip, [r0, #62]	@ zero_extendqisi2
 606 0008 5FFA8CF0 		uxtb	r0, ip
 607 000c 94F842C0 		ldrb	ip, [r4, #66]	@ zero_extendqisi2
 608 0010 0228     		cmp	r0, #2
 609 0012 61D0     		beq	.L65
 610 0014 0F46     		mov	r7, r1
 611 0016 1646     		mov	r6, r2
 612 0018 5FFA8CF5 		uxtb	r5, ip
 613 001c 022D     		cmp	r5, #2
 614 001e 58D0     		beq	.L69
 615 0020 0128     		cmp	r0, #1
 616 0022 58D1     		bne	.L70
 617 0024 012D     		cmp	r5, #1
 618 0026 57D1     		bne	.L65
 619 0028 0029     		cmp	r1, #0
 620 002a 44D0     		beq	.L74
 621              	.L66:
 622 002c 0223     		movs	r3, #2
 623 002e 84F83E30 		strb	r3, [r4, #62]
 624 0032 84F84230 		strb	r3, [r4, #66]
 625 0036 0122     		movs	r2, #1
 626 0038 0021     		movs	r1, #0
 627 003a 2068     		ldr	r0, [r4]
 628 003c FFF7FEFF 		bl	TIM_CCxChannelCmd
 629 0040 636A     		ldr	r3, [r4, #36]
 630 0042 274A     		ldr	r2, .L75
 631 0044 DA63     		str	r2, [r3, #60]
 632 0046 636A     		ldr	r3, [r4, #36]
 633 0048 264A     		ldr	r2, .L75+4
 634 004a 1A64     		str	r2, [r3, #64]
 635 004c 636A     		ldr	r3, [r4, #36]
 636 004e 264A     		ldr	r2, .L75+8
 637 0050 DA64     		str	r2, [r3, #76]
 638 0052 2168     		ldr	r1, [r4]
 639 0054 3346     		mov	r3, r6
 640 0056 3A46     		mov	r2, r7
 641 0058 3431     		adds	r1, r1, #52
 642 005a 606A     		ldr	r0, [r4, #36]
 643 005c FFF7FEFF 		bl	HAL_DMA_Start_IT
 644 0060 0028     		cmp	r0, #0
 645 0062 3AD1     		bne	.L72
 646 0064 2268     		ldr	r2, [r4]
 647 0066 D368     		ldr	r3, [r2, #12]
 648 0068 43F40073 		orr	r3, r3, #512
 649 006c D360     		str	r3, [r2, #12]
 650 006e 2368     		ldr	r3, [r4]
ARM GAS  /tmp/ccYPPKI6.s 			page 12


 651 0070 1E4A     		ldr	r2, .L75+12
 652 0072 9342     		cmp	r3, r2
 653 0074 23D0     		beq	.L67
 654 0076 B3F1804F 		cmp	r3, #1073741824
 655 007a 20D0     		beq	.L67
 656 007c A2F57C42 		sub	r2, r2, #64512
 657 0080 9342     		cmp	r3, r2
 658 0082 1CD0     		beq	.L67
 659 0084 02F58062 		add	r2, r2, #1024
 660 0088 9342     		cmp	r3, r2
 661 008a 18D0     		beq	.L67
 662 008c 02F58062 		add	r2, r2, #1024
 663 0090 9342     		cmp	r3, r2
 664 0092 14D0     		beq	.L67
 665 0094 02F57842 		add	r2, r2, #63488
 666 0098 9342     		cmp	r3, r2
 667 009a 10D0     		beq	.L67
 668 009c 02F57052 		add	r2, r2, #15360
 669 00a0 9342     		cmp	r3, r2
 670 00a2 0CD0     		beq	.L67
 671 00a4 A2F59432 		sub	r2, r2, #75776
 672 00a8 9342     		cmp	r3, r2
 673 00aa 08D0     		beq	.L67
 674 00ac 1A68     		ldr	r2, [r3]
 675 00ae 42F00102 		orr	r2, r2, #1
 676 00b2 1A60     		str	r2, [r3]
 677 00b4 10E0     		b	.L65
 678              	.L74:
 679 00b6 002A     		cmp	r2, #0
 680 00b8 B8D0     		beq	.L66
 681 00ba 2846     		mov	r0, r5
 682 00bc 0CE0     		b	.L65
 683              	.L67:
 684 00be 9A68     		ldr	r2, [r3, #8]
 685 00c0 02F00702 		and	r2, r2, #7
 686 00c4 062A     		cmp	r2, #6
 687 00c6 07D0     		beq	.L65
 688 00c8 1A68     		ldr	r2, [r3]
 689 00ca 42F00102 		orr	r2, r2, #1
 690 00ce 1A60     		str	r2, [r3]
 691 00d0 02E0     		b	.L65
 692              	.L69:
 693 00d2 2846     		mov	r0, r5
 694 00d4 00E0     		b	.L65
 695              	.L70:
 696 00d6 0120     		movs	r0, #1
 697              	.L65:
 698 00d8 F8BD     		pop	{r3, r4, r5, r6, r7, pc}
 699              	.L72:
 700 00da 2846     		mov	r0, r5
 701 00dc FCE7     		b	.L65
 702              	.L76:
 703 00de 00BF     		.align	2
 704              	.L75:
 705 00e0 00000000 		.word	TIM_DMACaptureCplt
 706 00e4 00000000 		.word	TIM_DMACaptureHalfCplt
 707 00e8 00000000 		.word	TIM_DMAError
ARM GAS  /tmp/ccYPPKI6.s 			page 13


 708 00ec 00000140 		.word	1073807360
 710              		.section	.text.HAL_TIMEx_HallSensor_Stop_DMA,"ax",%progbits
 711              		.align	1
 712              		.global	HAL_TIMEx_HallSensor_Stop_DMA
 713              		.syntax unified
 714              		.thumb
 715              		.thumb_func
 716              		.fpu fpv4-sp-d16
 718              	HAL_TIMEx_HallSensor_Stop_DMA:
 719              		@ args = 0, pretend = 0, frame = 0
 720              		@ frame_needed = 0, uses_anonymous_args = 0
 721 0000 10B5     		push	{r4, lr}
 722 0002 0446     		mov	r4, r0
 723 0004 0022     		movs	r2, #0
 724 0006 1146     		mov	r1, r2
 725 0008 0068     		ldr	r0, [r0]
 726 000a FFF7FEFF 		bl	TIM_CCxChannelCmd
 727 000e 2268     		ldr	r2, [r4]
 728 0010 D368     		ldr	r3, [r2, #12]
 729 0012 23F40073 		bic	r3, r3, #512
 730 0016 D360     		str	r3, [r2, #12]
 731 0018 606A     		ldr	r0, [r4, #36]
 732 001a FFF7FEFF 		bl	HAL_DMA_Abort_IT
 733 001e 2368     		ldr	r3, [r4]
 734 0020 196A     		ldr	r1, [r3, #32]
 735 0022 41F21112 		movw	r2, #4369
 736 0026 1142     		tst	r1, r2
 737 0028 08D1     		bne	.L78
 738 002a 196A     		ldr	r1, [r3, #32]
 739 002c 40F24442 		movw	r2, #1092
 740 0030 1142     		tst	r1, r2
 741 0032 03D1     		bne	.L78
 742 0034 1A68     		ldr	r2, [r3]
 743 0036 22F00102 		bic	r2, r2, #1
 744 003a 1A60     		str	r2, [r3]
 745              	.L78:
 746 003c 0123     		movs	r3, #1
 747 003e 84F83E30 		strb	r3, [r4, #62]
 748 0042 84F84230 		strb	r3, [r4, #66]
 749 0046 0020     		movs	r0, #0
 750 0048 10BD     		pop	{r4, pc}
 752              		.section	.text.HAL_TIMEx_OCN_Start,"ax",%progbits
 753              		.align	1
 754              		.global	HAL_TIMEx_OCN_Start
 755              		.syntax unified
 756              		.thumb
 757              		.thumb_func
 758              		.fpu fpv4-sp-d16
 760              	HAL_TIMEx_OCN_Start:
 761              		@ args = 0, pretend = 0, frame = 0
 762              		@ frame_needed = 0, uses_anonymous_args = 0
 763 0000 10B5     		push	{r4, lr}
 764 0002 0446     		mov	r4, r0
 765 0004 0846     		mov	r0, r1
 766 0006 0029     		cmp	r1, #0
 767 0008 3BD1     		bne	.L81
 768 000a 94F84230 		ldrb	r3, [r4, #66]	@ zero_extendqisi2
ARM GAS  /tmp/ccYPPKI6.s 			page 14


 769 000e DBB2     		uxtb	r3, r3
 770 0010 013B     		subs	r3, r3, #1
 771 0012 18BF     		it	ne
 772 0014 0123     		movne	r3, #1
 773              	.L82:
 774 0016 002B     		cmp	r3, #0
 775 0018 67D1     		bne	.L92
 776 001a 0028     		cmp	r0, #0
 777 001c 4AD1     		bne	.L86
 778 001e 0223     		movs	r3, #2
 779 0020 84F84230 		strb	r3, [r4, #66]
 780              	.L87:
 781 0024 0422     		movs	r2, #4
 782 0026 0146     		mov	r1, r0
 783 0028 2068     		ldr	r0, [r4]
 784 002a FFF7FEFF 		bl	TIM_CCxNChannelCmd
 785 002e 2268     		ldr	r2, [r4]
 786 0030 536C     		ldr	r3, [r2, #68]
 787 0032 43F40043 		orr	r3, r3, #32768
 788 0036 5364     		str	r3, [r2, #68]
 789 0038 2368     		ldr	r3, [r4]
 790 003a 2E4A     		ldr	r2, .L99
 791 003c 9342     		cmp	r3, r2
 792 003e 49D0     		beq	.L90
 793 0040 B3F1804F 		cmp	r3, #1073741824
 794 0044 46D0     		beq	.L90
 795 0046 A2F57C42 		sub	r2, r2, #64512
 796 004a 9342     		cmp	r3, r2
 797 004c 42D0     		beq	.L90
 798 004e 02F58062 		add	r2, r2, #1024
 799 0052 9342     		cmp	r3, r2
 800 0054 3ED0     		beq	.L90
 801 0056 02F58062 		add	r2, r2, #1024
 802 005a 9342     		cmp	r3, r2
 803 005c 3AD0     		beq	.L90
 804 005e 02F57842 		add	r2, r2, #63488
 805 0062 9342     		cmp	r3, r2
 806 0064 36D0     		beq	.L90
 807 0066 02F57052 		add	r2, r2, #15360
 808 006a 9342     		cmp	r3, r2
 809 006c 32D0     		beq	.L90
 810 006e A2F59432 		sub	r2, r2, #75776
 811 0072 9342     		cmp	r3, r2
 812 0074 2ED0     		beq	.L90
 813 0076 1A68     		ldr	r2, [r3]
 814 0078 42F00102 		orr	r2, r2, #1
 815 007c 1A60     		str	r2, [r3]
 816 007e 0020     		movs	r0, #0
 817 0080 32E0     		b	.L85
 818              	.L81:
 819 0082 0429     		cmp	r1, #4
 820 0084 08D0     		beq	.L95
 821 0086 0829     		cmp	r1, #8
 822 0088 0DD0     		beq	.L96
 823 008a 94F84530 		ldrb	r3, [r4, #69]	@ zero_extendqisi2
 824 008e DBB2     		uxtb	r3, r3
 825 0090 013B     		subs	r3, r3, #1
ARM GAS  /tmp/ccYPPKI6.s 			page 15


 826 0092 18BF     		it	ne
 827 0094 0123     		movne	r3, #1
 828 0096 BEE7     		b	.L82
 829              	.L95:
 830 0098 94F84330 		ldrb	r3, [r4, #67]	@ zero_extendqisi2
 831 009c DBB2     		uxtb	r3, r3
 832 009e 013B     		subs	r3, r3, #1
 833 00a0 18BF     		it	ne
 834 00a2 0123     		movne	r3, #1
 835 00a4 B7E7     		b	.L82
 836              	.L96:
 837 00a6 94F84430 		ldrb	r3, [r4, #68]	@ zero_extendqisi2
 838 00aa DBB2     		uxtb	r3, r3
 839 00ac 013B     		subs	r3, r3, #1
 840 00ae 18BF     		it	ne
 841 00b0 0123     		movne	r3, #1
 842 00b2 B0E7     		b	.L82
 843              	.L86:
 844 00b4 0428     		cmp	r0, #4
 845 00b6 05D0     		beq	.L97
 846 00b8 0828     		cmp	r0, #8
 847 00ba 07D0     		beq	.L98
 848 00bc 0223     		movs	r3, #2
 849 00be 84F84530 		strb	r3, [r4, #69]
 850 00c2 AFE7     		b	.L87
 851              	.L97:
 852 00c4 0223     		movs	r3, #2
 853 00c6 84F84330 		strb	r3, [r4, #67]
 854 00ca ABE7     		b	.L87
 855              	.L98:
 856 00cc 0223     		movs	r3, #2
 857 00ce 84F84430 		strb	r3, [r4, #68]
 858 00d2 A7E7     		b	.L87
 859              	.L90:
 860 00d4 9A68     		ldr	r2, [r3, #8]
 861 00d6 02F00702 		and	r2, r2, #7
 862 00da 062A     		cmp	r2, #6
 863 00dc 07D0     		beq	.L93
 864 00de 1A68     		ldr	r2, [r3]
 865 00e0 42F00102 		orr	r2, r2, #1
 866 00e4 1A60     		str	r2, [r3]
 867 00e6 0020     		movs	r0, #0
 868              	.L85:
 869 00e8 10BD     		pop	{r4, pc}
 870              	.L92:
 871 00ea 0120     		movs	r0, #1
 872 00ec FCE7     		b	.L85
 873              	.L93:
 874 00ee 0020     		movs	r0, #0
 875 00f0 FAE7     		b	.L85
 876              	.L100:
 877 00f2 00BF     		.align	2
 878              	.L99:
 879 00f4 00000140 		.word	1073807360
 881              		.section	.text.HAL_TIMEx_OCN_Stop,"ax",%progbits
 882              		.align	1
 883              		.global	HAL_TIMEx_OCN_Stop
ARM GAS  /tmp/ccYPPKI6.s 			page 16


 884              		.syntax unified
 885              		.thumb
 886              		.thumb_func
 887              		.fpu fpv4-sp-d16
 889              	HAL_TIMEx_OCN_Stop:
 890              		@ args = 0, pretend = 0, frame = 0
 891              		@ frame_needed = 0, uses_anonymous_args = 0
 892 0000 38B5     		push	{r3, r4, r5, lr}
 893 0002 0446     		mov	r4, r0
 894 0004 0D46     		mov	r5, r1
 895 0006 0022     		movs	r2, #0
 896 0008 0068     		ldr	r0, [r0]
 897 000a FFF7FEFF 		bl	TIM_CCxNChannelCmd
 898 000e 2368     		ldr	r3, [r4]
 899 0010 196A     		ldr	r1, [r3, #32]
 900 0012 41F21112 		movw	r2, #4369
 901 0016 1142     		tst	r1, r2
 902 0018 08D1     		bne	.L102
 903 001a 196A     		ldr	r1, [r3, #32]
 904 001c 40F24442 		movw	r2, #1092
 905 0020 1142     		tst	r1, r2
 906 0022 03D1     		bne	.L102
 907 0024 5A6C     		ldr	r2, [r3, #68]
 908 0026 22F40042 		bic	r2, r2, #32768
 909 002a 5A64     		str	r2, [r3, #68]
 910              	.L102:
 911 002c 2368     		ldr	r3, [r4]
 912 002e 196A     		ldr	r1, [r3, #32]
 913 0030 41F21112 		movw	r2, #4369
 914 0034 1142     		tst	r1, r2
 915 0036 08D1     		bne	.L103
 916 0038 196A     		ldr	r1, [r3, #32]
 917 003a 40F24442 		movw	r2, #1092
 918 003e 1142     		tst	r1, r2
 919 0040 03D1     		bne	.L103
 920 0042 1A68     		ldr	r2, [r3]
 921 0044 22F00102 		bic	r2, r2, #1
 922 0048 1A60     		str	r2, [r3]
 923              	.L103:
 924 004a 25B9     		cbnz	r5, .L104
 925 004c 0123     		movs	r3, #1
 926 004e 84F84230 		strb	r3, [r4, #66]
 927              	.L105:
 928 0052 0020     		movs	r0, #0
 929 0054 38BD     		pop	{r3, r4, r5, pc}
 930              	.L104:
 931 0056 042D     		cmp	r5, #4
 932 0058 05D0     		beq	.L109
 933 005a 082D     		cmp	r5, #8
 934 005c 07D0     		beq	.L110
 935 005e 0123     		movs	r3, #1
 936 0060 84F84530 		strb	r3, [r4, #69]
 937 0064 F5E7     		b	.L105
 938              	.L109:
 939 0066 0123     		movs	r3, #1
 940 0068 84F84330 		strb	r3, [r4, #67]
 941 006c F1E7     		b	.L105
ARM GAS  /tmp/ccYPPKI6.s 			page 17


 942              	.L110:
 943 006e 0123     		movs	r3, #1
 944 0070 84F84430 		strb	r3, [r4, #68]
 945 0074 EDE7     		b	.L105
 947              		.section	.text.HAL_TIMEx_OCN_Start_IT,"ax",%progbits
 948              		.align	1
 949              		.global	HAL_TIMEx_OCN_Start_IT
 950              		.syntax unified
 951              		.thumb
 952              		.thumb_func
 953              		.fpu fpv4-sp-d16
 955              	HAL_TIMEx_OCN_Start_IT:
 956              		@ args = 0, pretend = 0, frame = 0
 957              		@ frame_needed = 0, uses_anonymous_args = 0
 958 0000 10B5     		push	{r4, lr}
 959 0002 0446     		mov	r4, r0
 960 0004 0846     		mov	r0, r1
 961 0006 99B9     		cbnz	r1, .L112
 962 0008 94F84230 		ldrb	r3, [r4, #66]	@ zero_extendqisi2
 963 000c DBB2     		uxtb	r3, r3
 964 000e 013B     		subs	r3, r3, #1
 965 0010 18BF     		it	ne
 966 0012 0123     		movne	r3, #1
 967              	.L113:
 968 0014 002B     		cmp	r3, #0
 969 0016 40F08480 		bne	.L126
 970 001a 10BB     		cbnz	r0, .L117
 971 001c 0223     		movs	r3, #2
 972 001e 84F84230 		strb	r3, [r4, #66]
 973              	.L118:
 974 0022 0428     		cmp	r0, #4
 975 0024 66D0     		beq	.L121
 976 0026 0828     		cmp	r0, #8
 977 0028 6AD0     		beq	.L122
 978 002a 50B3     		cbz	r0, .L130
 979 002c 0120     		movs	r0, #1
 980              	.L116:
 981 002e 10BD     		pop	{r4, pc}
 982              	.L112:
 983 0030 0429     		cmp	r1, #4
 984 0032 08D0     		beq	.L131
 985 0034 0829     		cmp	r1, #8
 986 0036 0DD0     		beq	.L132
 987 0038 94F84530 		ldrb	r3, [r4, #69]	@ zero_extendqisi2
 988 003c DBB2     		uxtb	r3, r3
 989 003e 013B     		subs	r3, r3, #1
 990 0040 18BF     		it	ne
 991 0042 0123     		movne	r3, #1
 992 0044 E6E7     		b	.L113
 993              	.L131:
 994 0046 94F84330 		ldrb	r3, [r4, #67]	@ zero_extendqisi2
 995 004a DBB2     		uxtb	r3, r3
 996 004c 013B     		subs	r3, r3, #1
 997 004e 18BF     		it	ne
 998 0050 0123     		movne	r3, #1
 999 0052 DFE7     		b	.L113
 1000              	.L132:
ARM GAS  /tmp/ccYPPKI6.s 			page 18


 1001 0054 94F84430 		ldrb	r3, [r4, #68]	@ zero_extendqisi2
 1002 0058 DBB2     		uxtb	r3, r3
 1003 005a 013B     		subs	r3, r3, #1
 1004 005c 18BF     		it	ne
 1005 005e 0123     		movne	r3, #1
 1006 0060 D8E7     		b	.L113
 1007              	.L117:
 1008 0062 0428     		cmp	r0, #4
 1009 0064 05D0     		beq	.L133
 1010 0066 0828     		cmp	r0, #8
 1011 0068 07D0     		beq	.L134
 1012 006a 0223     		movs	r3, #2
 1013 006c 84F84530 		strb	r3, [r4, #69]
 1014 0070 D7E7     		b	.L118
 1015              	.L133:
 1016 0072 0223     		movs	r3, #2
 1017 0074 84F84330 		strb	r3, [r4, #67]
 1018 0078 D3E7     		b	.L118
 1019              	.L134:
 1020 007a 0223     		movs	r3, #2
 1021 007c 84F84430 		strb	r3, [r4, #68]
 1022 0080 CFE7     		b	.L118
 1023              	.L130:
 1024 0082 2268     		ldr	r2, [r4]
 1025 0084 D368     		ldr	r3, [r2, #12]
 1026 0086 43F00203 		orr	r3, r3, #2
 1027 008a D360     		str	r3, [r2, #12]
 1028              	.L123:
 1029 008c 2268     		ldr	r2, [r4]
 1030 008e D368     		ldr	r3, [r2, #12]
 1031 0090 43F08003 		orr	r3, r3, #128
 1032 0094 D360     		str	r3, [r2, #12]
 1033 0096 0422     		movs	r2, #4
 1034 0098 0146     		mov	r1, r0
 1035 009a 2068     		ldr	r0, [r4]
 1036 009c FFF7FEFF 		bl	TIM_CCxNChannelCmd
 1037 00a0 2268     		ldr	r2, [r4]
 1038 00a2 536C     		ldr	r3, [r2, #68]
 1039 00a4 43F40043 		orr	r3, r3, #32768
 1040 00a8 5364     		str	r3, [r2, #68]
 1041 00aa 2368     		ldr	r3, [r4]
 1042 00ac 1F4A     		ldr	r2, .L135
 1043 00ae 9342     		cmp	r3, r2
 1044 00b0 2CD0     		beq	.L124
 1045 00b2 B3F1804F 		cmp	r3, #1073741824
 1046 00b6 29D0     		beq	.L124
 1047 00b8 A2F57C42 		sub	r2, r2, #64512
 1048 00bc 9342     		cmp	r3, r2
 1049 00be 25D0     		beq	.L124
 1050 00c0 02F58062 		add	r2, r2, #1024
 1051 00c4 9342     		cmp	r3, r2
 1052 00c6 21D0     		beq	.L124
 1053 00c8 02F58062 		add	r2, r2, #1024
 1054 00cc 9342     		cmp	r3, r2
 1055 00ce 1DD0     		beq	.L124
 1056 00d0 02F57842 		add	r2, r2, #63488
 1057 00d4 9342     		cmp	r3, r2
ARM GAS  /tmp/ccYPPKI6.s 			page 19


 1058 00d6 19D0     		beq	.L124
 1059 00d8 02F57052 		add	r2, r2, #15360
 1060 00dc 9342     		cmp	r3, r2
 1061 00de 15D0     		beq	.L124
 1062 00e0 A2F59432 		sub	r2, r2, #75776
 1063 00e4 9342     		cmp	r3, r2
 1064 00e6 11D0     		beq	.L124
 1065 00e8 1A68     		ldr	r2, [r3]
 1066 00ea 42F00102 		orr	r2, r2, #1
 1067 00ee 1A60     		str	r2, [r3]
 1068 00f0 0020     		movs	r0, #0
 1069 00f2 9CE7     		b	.L116
 1070              	.L121:
 1071 00f4 2268     		ldr	r2, [r4]
 1072 00f6 D368     		ldr	r3, [r2, #12]
 1073 00f8 43F00403 		orr	r3, r3, #4
 1074 00fc D360     		str	r3, [r2, #12]
 1075 00fe C5E7     		b	.L123
 1076              	.L122:
 1077 0100 2268     		ldr	r2, [r4]
 1078 0102 D368     		ldr	r3, [r2, #12]
 1079 0104 43F00803 		orr	r3, r3, #8
 1080 0108 D360     		str	r3, [r2, #12]
 1081 010a BFE7     		b	.L123
 1082              	.L124:
 1083 010c 9A68     		ldr	r2, [r3, #8]
 1084 010e 02F00702 		and	r2, r2, #7
 1085 0112 062A     		cmp	r2, #6
 1086 0114 07D0     		beq	.L128
 1087 0116 1A68     		ldr	r2, [r3]
 1088 0118 42F00102 		orr	r2, r2, #1
 1089 011c 1A60     		str	r2, [r3]
 1090 011e 0020     		movs	r0, #0
 1091 0120 85E7     		b	.L116
 1092              	.L126:
 1093 0122 0120     		movs	r0, #1
 1094 0124 83E7     		b	.L116
 1095              	.L128:
 1096 0126 0020     		movs	r0, #0
 1097 0128 81E7     		b	.L116
 1098              	.L136:
 1099 012a 00BF     		.align	2
 1100              	.L135:
 1101 012c 00000140 		.word	1073807360
 1103              		.section	.text.HAL_TIMEx_OCN_Stop_IT,"ax",%progbits
 1104              		.align	1
 1105              		.global	HAL_TIMEx_OCN_Stop_IT
 1106              		.syntax unified
 1107              		.thumb
 1108              		.thumb_func
 1109              		.fpu fpv4-sp-d16
 1111              	HAL_TIMEx_OCN_Stop_IT:
 1112              		@ args = 0, pretend = 0, frame = 0
 1113              		@ frame_needed = 0, uses_anonymous_args = 0
 1114 0000 38B5     		push	{r3, r4, r5, lr}
 1115 0002 0546     		mov	r5, r0
 1116 0004 0C46     		mov	r4, r1
ARM GAS  /tmp/ccYPPKI6.s 			page 20


 1117 0006 0429     		cmp	r1, #4
 1118 0008 3CD0     		beq	.L138
 1119 000a 0829     		cmp	r1, #8
 1120 000c 40D0     		beq	.L139
 1121 000e 09B1     		cbz	r1, .L150
 1122 0010 0120     		movs	r0, #1
 1123              	.L140:
 1124 0012 38BD     		pop	{r3, r4, r5, pc}
 1125              	.L150:
 1126 0014 0268     		ldr	r2, [r0]
 1127 0016 D368     		ldr	r3, [r2, #12]
 1128 0018 23F00203 		bic	r3, r3, #2
 1129 001c D360     		str	r3, [r2, #12]
 1130              	.L141:
 1131 001e 0022     		movs	r2, #0
 1132 0020 2146     		mov	r1, r4
 1133 0022 2868     		ldr	r0, [r5]
 1134 0024 FFF7FEFF 		bl	TIM_CCxNChannelCmd
 1135 0028 2B68     		ldr	r3, [r5]
 1136 002a 196A     		ldr	r1, [r3, #32]
 1137 002c 40F24442 		movw	r2, #1092
 1138 0030 1142     		tst	r1, r2
 1139 0032 03D1     		bne	.L142
 1140 0034 DA68     		ldr	r2, [r3, #12]
 1141 0036 22F08002 		bic	r2, r2, #128
 1142 003a DA60     		str	r2, [r3, #12]
 1143              	.L142:
 1144 003c 2B68     		ldr	r3, [r5]
 1145 003e 196A     		ldr	r1, [r3, #32]
 1146 0040 41F21112 		movw	r2, #4369
 1147 0044 1142     		tst	r1, r2
 1148 0046 08D1     		bne	.L143
 1149 0048 196A     		ldr	r1, [r3, #32]
 1150 004a 40F24442 		movw	r2, #1092
 1151 004e 1142     		tst	r1, r2
 1152 0050 03D1     		bne	.L143
 1153 0052 5A6C     		ldr	r2, [r3, #68]
 1154 0054 22F40042 		bic	r2, r2, #32768
 1155 0058 5A64     		str	r2, [r3, #68]
 1156              	.L143:
 1157 005a 2B68     		ldr	r3, [r5]
 1158 005c 196A     		ldr	r1, [r3, #32]
 1159 005e 41F21112 		movw	r2, #4369
 1160 0062 1142     		tst	r1, r2
 1161 0064 08D1     		bne	.L144
 1162 0066 196A     		ldr	r1, [r3, #32]
 1163 0068 40F24442 		movw	r2, #1092
 1164 006c 1142     		tst	r1, r2
 1165 006e 03D1     		bne	.L144
 1166 0070 1A68     		ldr	r2, [r3]
 1167 0072 22F00102 		bic	r2, r2, #1
 1168 0076 1A60     		str	r2, [r3]
 1169              	.L144:
 1170 0078 84B9     		cbnz	r4, .L145
 1171 007a 0123     		movs	r3, #1
 1172 007c 85F84230 		strb	r3, [r5, #66]
 1173 0080 0020     		movs	r0, #0
ARM GAS  /tmp/ccYPPKI6.s 			page 21


 1174 0082 C6E7     		b	.L140
 1175              	.L138:
 1176 0084 0268     		ldr	r2, [r0]
 1177 0086 D368     		ldr	r3, [r2, #12]
 1178 0088 23F00403 		bic	r3, r3, #4
 1179 008c D360     		str	r3, [r2, #12]
 1180 008e C6E7     		b	.L141
 1181              	.L139:
 1182 0090 0268     		ldr	r2, [r0]
 1183 0092 D368     		ldr	r3, [r2, #12]
 1184 0094 23F00803 		bic	r3, r3, #8
 1185 0098 D360     		str	r3, [r2, #12]
 1186 009a C0E7     		b	.L141
 1187              	.L145:
 1188 009c 042C     		cmp	r4, #4
 1189 009e 06D0     		beq	.L151
 1190 00a0 082C     		cmp	r4, #8
 1191 00a2 09D0     		beq	.L152
 1192 00a4 0123     		movs	r3, #1
 1193 00a6 85F84530 		strb	r3, [r5, #69]
 1194 00aa 0020     		movs	r0, #0
 1195 00ac B1E7     		b	.L140
 1196              	.L151:
 1197 00ae 0123     		movs	r3, #1
 1198 00b0 85F84330 		strb	r3, [r5, #67]
 1199 00b4 0020     		movs	r0, #0
 1200 00b6 ACE7     		b	.L140
 1201              	.L152:
 1202 00b8 0123     		movs	r3, #1
 1203 00ba 85F84430 		strb	r3, [r5, #68]
 1204 00be 0020     		movs	r0, #0
 1205 00c0 A7E7     		b	.L140
 1207              		.section	.text.HAL_TIMEx_OCN_Start_DMA,"ax",%progbits
 1208              		.align	1
 1209              		.global	HAL_TIMEx_OCN_Start_DMA
 1210              		.syntax unified
 1211              		.thumb
 1212              		.thumb_func
 1213              		.fpu fpv4-sp-d16
 1215              	HAL_TIMEx_OCN_Start_DMA:
 1216              		@ args = 0, pretend = 0, frame = 0
 1217              		@ frame_needed = 0, uses_anonymous_args = 0
 1218 0000 70B5     		push	{r4, r5, r6, lr}
 1219 0002 0446     		mov	r4, r0
 1220 0004 1646     		mov	r6, r2
 1221 0006 0D46     		mov	r5, r1
 1222 0008 31BB     		cbnz	r1, .L154
 1223 000a 90F84200 		ldrb	r0, [r0, #66]	@ zero_extendqisi2
 1224 000e C0B2     		uxtb	r0, r0
 1225 0010 0228     		cmp	r0, #2
 1226 0012 14BF     		ite	ne
 1227 0014 0020     		movne	r0, #0
 1228 0016 0120     		moveq	r0, #1
 1229              	.L155:
 1230 0018 0028     		cmp	r0, #0
 1231 001a 40F0E680 		bne	.L173
 1232 001e 002D     		cmp	r5, #0
ARM GAS  /tmp/ccYPPKI6.s 			page 22


 1233 0020 36D1     		bne	.L159
 1234 0022 94F84220 		ldrb	r2, [r4, #66]	@ zero_extendqisi2
 1235 0026 D2B2     		uxtb	r2, r2
 1236 0028 012A     		cmp	r2, #1
 1237 002a 14BF     		ite	ne
 1238 002c 0022     		movne	r2, #0
 1239 002e 0122     		moveq	r2, #1
 1240              	.L160:
 1241 0030 002A     		cmp	r2, #0
 1242 0032 00F0DC80 		beq	.L174
 1243 0036 002E     		cmp	r6, #0
 1244 0038 46D0     		beq	.L182
 1245              	.L163:
 1246 003a 002D     		cmp	r5, #0
 1247 003c 48D1     		bne	.L164
 1248 003e 0222     		movs	r2, #2
 1249 0040 84F84220 		strb	r2, [r4, #66]
 1250              	.L165:
 1251 0044 042D     		cmp	r5, #4
 1252 0046 00F09880 		beq	.L168
 1253 004a 082D     		cmp	r5, #8
 1254 004c 00F0AC80 		beq	.L169
 1255 0050 002D     		cmp	r5, #0
 1256 0052 4DD0     		beq	.L183
 1257 0054 0120     		movs	r0, #1
 1258              	.L158:
 1259 0056 70BD     		pop	{r4, r5, r6, pc}
 1260              	.L154:
 1261 0058 0429     		cmp	r1, #4
 1262 005a 09D0     		beq	.L184
 1263 005c 0829     		cmp	r1, #8
 1264 005e 0FD0     		beq	.L185
 1265 0060 90F84500 		ldrb	r0, [r0, #69]	@ zero_extendqisi2
 1266 0064 C0B2     		uxtb	r0, r0
 1267 0066 0228     		cmp	r0, #2
 1268 0068 14BF     		ite	ne
 1269 006a 0020     		movne	r0, #0
 1270 006c 0120     		moveq	r0, #1
 1271 006e D3E7     		b	.L155
 1272              	.L184:
 1273 0070 90F84300 		ldrb	r0, [r0, #67]	@ zero_extendqisi2
 1274 0074 C0B2     		uxtb	r0, r0
 1275 0076 0228     		cmp	r0, #2
 1276 0078 14BF     		ite	ne
 1277 007a 0020     		movne	r0, #0
 1278 007c 0120     		moveq	r0, #1
 1279 007e CBE7     		b	.L155
 1280              	.L185:
 1281 0080 90F84400 		ldrb	r0, [r0, #68]	@ zero_extendqisi2
 1282 0084 C0B2     		uxtb	r0, r0
 1283 0086 0228     		cmp	r0, #2
 1284 0088 14BF     		ite	ne
 1285 008a 0020     		movne	r0, #0
 1286 008c 0120     		moveq	r0, #1
 1287 008e C3E7     		b	.L155
 1288              	.L159:
 1289 0090 042D     		cmp	r5, #4
ARM GAS  /tmp/ccYPPKI6.s 			page 23


 1290 0092 09D0     		beq	.L186
 1291 0094 082D     		cmp	r5, #8
 1292 0096 0FD0     		beq	.L187
 1293 0098 94F84520 		ldrb	r2, [r4, #69]	@ zero_extendqisi2
 1294 009c D2B2     		uxtb	r2, r2
 1295 009e 012A     		cmp	r2, #1
 1296 00a0 14BF     		ite	ne
 1297 00a2 0022     		movne	r2, #0
 1298 00a4 0122     		moveq	r2, #1
 1299 00a6 C3E7     		b	.L160
 1300              	.L186:
 1301 00a8 94F84320 		ldrb	r2, [r4, #67]	@ zero_extendqisi2
 1302 00ac D2B2     		uxtb	r2, r2
 1303 00ae 012A     		cmp	r2, #1
 1304 00b0 14BF     		ite	ne
 1305 00b2 0022     		movne	r2, #0
 1306 00b4 0122     		moveq	r2, #1
 1307 00b6 BBE7     		b	.L160
 1308              	.L187:
 1309 00b8 94F84420 		ldrb	r2, [r4, #68]	@ zero_extendqisi2
 1310 00bc D2B2     		uxtb	r2, r2
 1311 00be 012A     		cmp	r2, #1
 1312 00c0 14BF     		ite	ne
 1313 00c2 0022     		movne	r2, #0
 1314 00c4 0122     		moveq	r2, #1
 1315 00c6 B3E7     		b	.L160
 1316              	.L182:
 1317 00c8 002B     		cmp	r3, #0
 1318 00ca B6D0     		beq	.L163
 1319 00cc 0120     		movs	r0, #1
 1320 00ce C2E7     		b	.L158
 1321              	.L164:
 1322 00d0 042D     		cmp	r5, #4
 1323 00d2 05D0     		beq	.L188
 1324 00d4 082D     		cmp	r5, #8
 1325 00d6 07D0     		beq	.L189
 1326 00d8 0222     		movs	r2, #2
 1327 00da 84F84520 		strb	r2, [r4, #69]
 1328 00de B1E7     		b	.L165
 1329              	.L188:
 1330 00e0 0222     		movs	r2, #2
 1331 00e2 84F84320 		strb	r2, [r4, #67]
 1332 00e6 ADE7     		b	.L165
 1333              	.L189:
 1334 00e8 0222     		movs	r2, #2
 1335 00ea 84F84420 		strb	r2, [r4, #68]
 1336 00ee A9E7     		b	.L165
 1337              	.L183:
 1338 00f0 626A     		ldr	r2, [r4, #36]
 1339 00f2 4449     		ldr	r1, .L190
 1340 00f4 D163     		str	r1, [r2, #60]
 1341 00f6 626A     		ldr	r2, [r4, #36]
 1342 00f8 4349     		ldr	r1, .L190+4
 1343 00fa 1164     		str	r1, [r2, #64]
 1344 00fc 626A     		ldr	r2, [r4, #36]
 1345 00fe 4349     		ldr	r1, .L190+8
 1346 0100 D164     		str	r1, [r2, #76]
ARM GAS  /tmp/ccYPPKI6.s 			page 24


 1347 0102 2268     		ldr	r2, [r4]
 1348 0104 3432     		adds	r2, r2, #52
 1349 0106 3146     		mov	r1, r6
 1350 0108 606A     		ldr	r0, [r4, #36]
 1351 010a FFF7FEFF 		bl	HAL_DMA_Start_IT
 1352 010e 0028     		cmp	r0, #0
 1353 0110 6FD1     		bne	.L177
 1354 0112 2268     		ldr	r2, [r4]
 1355 0114 D368     		ldr	r3, [r2, #12]
 1356 0116 43F40073 		orr	r3, r3, #512
 1357 011a D360     		str	r3, [r2, #12]
 1358              	.L170:
 1359 011c 0422     		movs	r2, #4
 1360 011e 2946     		mov	r1, r5
 1361 0120 2068     		ldr	r0, [r4]
 1362 0122 FFF7FEFF 		bl	TIM_CCxNChannelCmd
 1363 0126 2268     		ldr	r2, [r4]
 1364 0128 536C     		ldr	r3, [r2, #68]
 1365 012a 43F40043 		orr	r3, r3, #32768
 1366 012e 5364     		str	r3, [r2, #68]
 1367 0130 2368     		ldr	r3, [r4]
 1368 0132 374A     		ldr	r2, .L190+12
 1369 0134 9342     		cmp	r3, r2
 1370 0136 4DD0     		beq	.L171
 1371 0138 B3F1804F 		cmp	r3, #1073741824
 1372 013c 4AD0     		beq	.L171
 1373 013e A2F57C42 		sub	r2, r2, #64512
 1374 0142 9342     		cmp	r3, r2
 1375 0144 46D0     		beq	.L171
 1376 0146 02F58062 		add	r2, r2, #1024
 1377 014a 9342     		cmp	r3, r2
 1378 014c 42D0     		beq	.L171
 1379 014e 02F58062 		add	r2, r2, #1024
 1380 0152 9342     		cmp	r3, r2
 1381 0154 3ED0     		beq	.L171
 1382 0156 02F57842 		add	r2, r2, #63488
 1383 015a 9342     		cmp	r3, r2
 1384 015c 3AD0     		beq	.L171
 1385 015e 02F57052 		add	r2, r2, #15360
 1386 0162 9342     		cmp	r3, r2
 1387 0164 36D0     		beq	.L171
 1388 0166 A2F59432 		sub	r2, r2, #75776
 1389 016a 9342     		cmp	r3, r2
 1390 016c 32D0     		beq	.L171
 1391 016e 1A68     		ldr	r2, [r3]
 1392 0170 42F00102 		orr	r2, r2, #1
 1393 0174 1A60     		str	r2, [r3]
 1394 0176 0020     		movs	r0, #0
 1395 0178 6DE7     		b	.L158
 1396              	.L168:
 1397 017a A26A     		ldr	r2, [r4, #40]
 1398 017c 2149     		ldr	r1, .L190
 1399 017e D163     		str	r1, [r2, #60]
 1400 0180 A26A     		ldr	r2, [r4, #40]
 1401 0182 2149     		ldr	r1, .L190+4
 1402 0184 1164     		str	r1, [r2, #64]
 1403 0186 A26A     		ldr	r2, [r4, #40]
ARM GAS  /tmp/ccYPPKI6.s 			page 25


 1404 0188 2049     		ldr	r1, .L190+8
 1405 018a D164     		str	r1, [r2, #76]
 1406 018c 2268     		ldr	r2, [r4]
 1407 018e 3832     		adds	r2, r2, #56
 1408 0190 3146     		mov	r1, r6
 1409 0192 A06A     		ldr	r0, [r4, #40]
 1410 0194 FFF7FEFF 		bl	HAL_DMA_Start_IT
 1411 0198 0028     		cmp	r0, #0
 1412 019a 2CD1     		bne	.L178
 1413 019c 2268     		ldr	r2, [r4]
 1414 019e D368     		ldr	r3, [r2, #12]
 1415 01a0 43F48063 		orr	r3, r3, #1024
 1416 01a4 D360     		str	r3, [r2, #12]
 1417 01a6 B9E7     		b	.L170
 1418              	.L169:
 1419 01a8 E26A     		ldr	r2, [r4, #44]
 1420 01aa 1649     		ldr	r1, .L190
 1421 01ac D163     		str	r1, [r2, #60]
 1422 01ae E26A     		ldr	r2, [r4, #44]
 1423 01b0 1549     		ldr	r1, .L190+4
 1424 01b2 1164     		str	r1, [r2, #64]
 1425 01b4 E26A     		ldr	r2, [r4, #44]
 1426 01b6 1549     		ldr	r1, .L190+8
 1427 01b8 D164     		str	r1, [r2, #76]
 1428 01ba 2268     		ldr	r2, [r4]
 1429 01bc 3C32     		adds	r2, r2, #60
 1430 01be 3146     		mov	r1, r6
 1431 01c0 E06A     		ldr	r0, [r4, #44]
 1432 01c2 FFF7FEFF 		bl	HAL_DMA_Start_IT
 1433 01c6 C0B9     		cbnz	r0, .L179
 1434 01c8 2268     		ldr	r2, [r4]
 1435 01ca D368     		ldr	r3, [r2, #12]
 1436 01cc 43F40063 		orr	r3, r3, #2048
 1437 01d0 D360     		str	r3, [r2, #12]
 1438 01d2 A3E7     		b	.L170
 1439              	.L171:
 1440 01d4 9A68     		ldr	r2, [r3, #8]
 1441 01d6 02F00702 		and	r2, r2, #7
 1442 01da 062A     		cmp	r2, #6
 1443 01dc 0FD0     		beq	.L180
 1444 01de 1A68     		ldr	r2, [r3]
 1445 01e0 42F00102 		orr	r2, r2, #1
 1446 01e4 1A60     		str	r2, [r3]
 1447 01e6 0020     		movs	r0, #0
 1448 01e8 35E7     		b	.L158
 1449              	.L173:
 1450 01ea 0220     		movs	r0, #2
 1451 01ec 33E7     		b	.L158
 1452              	.L174:
 1453 01ee 0120     		movs	r0, #1
 1454 01f0 31E7     		b	.L158
 1455              	.L177:
 1456 01f2 0120     		movs	r0, #1
 1457 01f4 2FE7     		b	.L158
 1458              	.L178:
 1459 01f6 0120     		movs	r0, #1
 1460 01f8 2DE7     		b	.L158
ARM GAS  /tmp/ccYPPKI6.s 			page 26


 1461              	.L179:
 1462 01fa 0120     		movs	r0, #1
 1463 01fc 2BE7     		b	.L158
 1464              	.L180:
 1465 01fe 0020     		movs	r0, #0
 1466 0200 29E7     		b	.L158
 1467              	.L191:
 1468 0202 00BF     		.align	2
 1469              	.L190:
 1470 0204 00000000 		.word	TIM_DMADelayPulseNCplt
 1471 0208 00000000 		.word	TIM_DMADelayPulseHalfCplt
 1472 020c 00000000 		.word	TIM_DMAErrorCCxN
 1473 0210 00000140 		.word	1073807360
 1475              		.section	.text.HAL_TIMEx_OCN_Stop_DMA,"ax",%progbits
 1476              		.align	1
 1477              		.global	HAL_TIMEx_OCN_Stop_DMA
 1478              		.syntax unified
 1479              		.thumb
 1480              		.thumb_func
 1481              		.fpu fpv4-sp-d16
 1483              	HAL_TIMEx_OCN_Stop_DMA:
 1484              		@ args = 0, pretend = 0, frame = 0
 1485              		@ frame_needed = 0, uses_anonymous_args = 0
 1486 0000 38B5     		push	{r3, r4, r5, lr}
 1487 0002 0546     		mov	r5, r0
 1488 0004 0C46     		mov	r4, r1
 1489 0006 0429     		cmp	r1, #4
 1490 0008 35D0     		beq	.L193
 1491 000a 0829     		cmp	r1, #8
 1492 000c 3CD0     		beq	.L194
 1493 000e 09B1     		cbz	r1, .L204
 1494 0010 0120     		movs	r0, #1
 1495              	.L195:
 1496 0012 38BD     		pop	{r3, r4, r5, pc}
 1497              	.L204:
 1498 0014 0268     		ldr	r2, [r0]
 1499 0016 D368     		ldr	r3, [r2, #12]
 1500 0018 23F40073 		bic	r3, r3, #512
 1501 001c D360     		str	r3, [r2, #12]
 1502 001e 406A     		ldr	r0, [r0, #36]
 1503 0020 FFF7FEFF 		bl	HAL_DMA_Abort_IT
 1504              	.L196:
 1505 0024 0022     		movs	r2, #0
 1506 0026 2146     		mov	r1, r4
 1507 0028 2868     		ldr	r0, [r5]
 1508 002a FFF7FEFF 		bl	TIM_CCxNChannelCmd
 1509 002e 2B68     		ldr	r3, [r5]
 1510 0030 196A     		ldr	r1, [r3, #32]
 1511 0032 41F21112 		movw	r2, #4369
 1512 0036 1142     		tst	r1, r2
 1513 0038 08D1     		bne	.L197
 1514 003a 196A     		ldr	r1, [r3, #32]
 1515 003c 40F24442 		movw	r2, #1092
 1516 0040 1142     		tst	r1, r2
 1517 0042 03D1     		bne	.L197
 1518 0044 5A6C     		ldr	r2, [r3, #68]
 1519 0046 22F40042 		bic	r2, r2, #32768
ARM GAS  /tmp/ccYPPKI6.s 			page 27


 1520 004a 5A64     		str	r2, [r3, #68]
 1521              	.L197:
 1522 004c 2B68     		ldr	r3, [r5]
 1523 004e 196A     		ldr	r1, [r3, #32]
 1524 0050 41F21112 		movw	r2, #4369
 1525 0054 1142     		tst	r1, r2
 1526 0056 08D1     		bne	.L198
 1527 0058 196A     		ldr	r1, [r3, #32]
 1528 005a 40F24442 		movw	r2, #1092
 1529 005e 1142     		tst	r1, r2
 1530 0060 03D1     		bne	.L198
 1531 0062 1A68     		ldr	r2, [r3]
 1532 0064 22F00102 		bic	r2, r2, #1
 1533 0068 1A60     		str	r2, [r3]
 1534              	.L198:
 1535 006a B4B9     		cbnz	r4, .L199
 1536 006c 0123     		movs	r3, #1
 1537 006e 85F84230 		strb	r3, [r5, #66]
 1538 0072 0020     		movs	r0, #0
 1539 0074 CDE7     		b	.L195
 1540              	.L193:
 1541 0076 0268     		ldr	r2, [r0]
 1542 0078 D368     		ldr	r3, [r2, #12]
 1543 007a 23F48063 		bic	r3, r3, #1024
 1544 007e D360     		str	r3, [r2, #12]
 1545 0080 806A     		ldr	r0, [r0, #40]
 1546 0082 FFF7FEFF 		bl	HAL_DMA_Abort_IT
 1547 0086 CDE7     		b	.L196
 1548              	.L194:
 1549 0088 0268     		ldr	r2, [r0]
 1550 008a D368     		ldr	r3, [r2, #12]
 1551 008c 23F40063 		bic	r3, r3, #2048
 1552 0090 D360     		str	r3, [r2, #12]
 1553 0092 C06A     		ldr	r0, [r0, #44]
 1554 0094 FFF7FEFF 		bl	HAL_DMA_Abort_IT
 1555 0098 C4E7     		b	.L196
 1556              	.L199:
 1557 009a 042C     		cmp	r4, #4
 1558 009c 06D0     		beq	.L205
 1559 009e 082C     		cmp	r4, #8
 1560 00a0 09D0     		beq	.L206
 1561 00a2 0123     		movs	r3, #1
 1562 00a4 85F84530 		strb	r3, [r5, #69]
 1563 00a8 0020     		movs	r0, #0
 1564 00aa B2E7     		b	.L195
 1565              	.L205:
 1566 00ac 0123     		movs	r3, #1
 1567 00ae 85F84330 		strb	r3, [r5, #67]
 1568 00b2 0020     		movs	r0, #0
 1569 00b4 ADE7     		b	.L195
 1570              	.L206:
 1571 00b6 0123     		movs	r3, #1
 1572 00b8 85F84430 		strb	r3, [r5, #68]
 1573 00bc 0020     		movs	r0, #0
 1574 00be A8E7     		b	.L195
 1576              		.section	.text.HAL_TIMEx_PWMN_Start,"ax",%progbits
 1577              		.align	1
ARM GAS  /tmp/ccYPPKI6.s 			page 28


 1578              		.global	HAL_TIMEx_PWMN_Start
 1579              		.syntax unified
 1580              		.thumb
 1581              		.thumb_func
 1582              		.fpu fpv4-sp-d16
 1584              	HAL_TIMEx_PWMN_Start:
 1585              		@ args = 0, pretend = 0, frame = 0
 1586              		@ frame_needed = 0, uses_anonymous_args = 0
 1587 0000 10B5     		push	{r4, lr}
 1588 0002 0446     		mov	r4, r0
 1589 0004 0846     		mov	r0, r1
 1590 0006 0029     		cmp	r1, #0
 1591 0008 3BD1     		bne	.L208
 1592 000a 94F84230 		ldrb	r3, [r4, #66]	@ zero_extendqisi2
 1593 000e DBB2     		uxtb	r3, r3
 1594 0010 013B     		subs	r3, r3, #1
 1595 0012 18BF     		it	ne
 1596 0014 0123     		movne	r3, #1
 1597              	.L209:
 1598 0016 002B     		cmp	r3, #0
 1599 0018 67D1     		bne	.L219
 1600 001a 0028     		cmp	r0, #0
 1601 001c 4AD1     		bne	.L213
 1602 001e 0223     		movs	r3, #2
 1603 0020 84F84230 		strb	r3, [r4, #66]
 1604              	.L214:
 1605 0024 0422     		movs	r2, #4
 1606 0026 0146     		mov	r1, r0
 1607 0028 2068     		ldr	r0, [r4]
 1608 002a FFF7FEFF 		bl	TIM_CCxNChannelCmd
 1609 002e 2268     		ldr	r2, [r4]
 1610 0030 536C     		ldr	r3, [r2, #68]
 1611 0032 43F40043 		orr	r3, r3, #32768
 1612 0036 5364     		str	r3, [r2, #68]
 1613 0038 2368     		ldr	r3, [r4]
 1614 003a 2E4A     		ldr	r2, .L226
 1615 003c 9342     		cmp	r3, r2
 1616 003e 49D0     		beq	.L217
 1617 0040 B3F1804F 		cmp	r3, #1073741824
 1618 0044 46D0     		beq	.L217
 1619 0046 A2F57C42 		sub	r2, r2, #64512
 1620 004a 9342     		cmp	r3, r2
 1621 004c 42D0     		beq	.L217
 1622 004e 02F58062 		add	r2, r2, #1024
 1623 0052 9342     		cmp	r3, r2
 1624 0054 3ED0     		beq	.L217
 1625 0056 02F58062 		add	r2, r2, #1024
 1626 005a 9342     		cmp	r3, r2
 1627 005c 3AD0     		beq	.L217
 1628 005e 02F57842 		add	r2, r2, #63488
 1629 0062 9342     		cmp	r3, r2
 1630 0064 36D0     		beq	.L217
 1631 0066 02F57052 		add	r2, r2, #15360
 1632 006a 9342     		cmp	r3, r2
 1633 006c 32D0     		beq	.L217
 1634 006e A2F59432 		sub	r2, r2, #75776
 1635 0072 9342     		cmp	r3, r2
ARM GAS  /tmp/ccYPPKI6.s 			page 29


 1636 0074 2ED0     		beq	.L217
 1637 0076 1A68     		ldr	r2, [r3]
 1638 0078 42F00102 		orr	r2, r2, #1
 1639 007c 1A60     		str	r2, [r3]
 1640 007e 0020     		movs	r0, #0
 1641 0080 32E0     		b	.L212
 1642              	.L208:
 1643 0082 0429     		cmp	r1, #4
 1644 0084 08D0     		beq	.L222
 1645 0086 0829     		cmp	r1, #8
 1646 0088 0DD0     		beq	.L223
 1647 008a 94F84530 		ldrb	r3, [r4, #69]	@ zero_extendqisi2
 1648 008e DBB2     		uxtb	r3, r3
 1649 0090 013B     		subs	r3, r3, #1
 1650 0092 18BF     		it	ne
 1651 0094 0123     		movne	r3, #1
 1652 0096 BEE7     		b	.L209
 1653              	.L222:
 1654 0098 94F84330 		ldrb	r3, [r4, #67]	@ zero_extendqisi2
 1655 009c DBB2     		uxtb	r3, r3
 1656 009e 013B     		subs	r3, r3, #1
 1657 00a0 18BF     		it	ne
 1658 00a2 0123     		movne	r3, #1
 1659 00a4 B7E7     		b	.L209
 1660              	.L223:
 1661 00a6 94F84430 		ldrb	r3, [r4, #68]	@ zero_extendqisi2
 1662 00aa DBB2     		uxtb	r3, r3
 1663 00ac 013B     		subs	r3, r3, #1
 1664 00ae 18BF     		it	ne
 1665 00b0 0123     		movne	r3, #1
 1666 00b2 B0E7     		b	.L209
 1667              	.L213:
 1668 00b4 0428     		cmp	r0, #4
 1669 00b6 05D0     		beq	.L224
 1670 00b8 0828     		cmp	r0, #8
 1671 00ba 07D0     		beq	.L225
 1672 00bc 0223     		movs	r3, #2
 1673 00be 84F84530 		strb	r3, [r4, #69]
 1674 00c2 AFE7     		b	.L214
 1675              	.L224:
 1676 00c4 0223     		movs	r3, #2
 1677 00c6 84F84330 		strb	r3, [r4, #67]
 1678 00ca ABE7     		b	.L214
 1679              	.L225:
 1680 00cc 0223     		movs	r3, #2
 1681 00ce 84F84430 		strb	r3, [r4, #68]
 1682 00d2 A7E7     		b	.L214
 1683              	.L217:
 1684 00d4 9A68     		ldr	r2, [r3, #8]
 1685 00d6 02F00702 		and	r2, r2, #7
 1686 00da 062A     		cmp	r2, #6
 1687 00dc 07D0     		beq	.L220
 1688 00de 1A68     		ldr	r2, [r3]
 1689 00e0 42F00102 		orr	r2, r2, #1
 1690 00e4 1A60     		str	r2, [r3]
 1691 00e6 0020     		movs	r0, #0
 1692              	.L212:
ARM GAS  /tmp/ccYPPKI6.s 			page 30


 1693 00e8 10BD     		pop	{r4, pc}
 1694              	.L219:
 1695 00ea 0120     		movs	r0, #1
 1696 00ec FCE7     		b	.L212
 1697              	.L220:
 1698 00ee 0020     		movs	r0, #0
 1699 00f0 FAE7     		b	.L212
 1700              	.L227:
 1701 00f2 00BF     		.align	2
 1702              	.L226:
 1703 00f4 00000140 		.word	1073807360
 1705              		.section	.text.HAL_TIMEx_PWMN_Stop,"ax",%progbits
 1706              		.align	1
 1707              		.global	HAL_TIMEx_PWMN_Stop
 1708              		.syntax unified
 1709              		.thumb
 1710              		.thumb_func
 1711              		.fpu fpv4-sp-d16
 1713              	HAL_TIMEx_PWMN_Stop:
 1714              		@ args = 0, pretend = 0, frame = 0
 1715              		@ frame_needed = 0, uses_anonymous_args = 0
 1716 0000 38B5     		push	{r3, r4, r5, lr}
 1717 0002 0446     		mov	r4, r0
 1718 0004 0D46     		mov	r5, r1
 1719 0006 0022     		movs	r2, #0
 1720 0008 0068     		ldr	r0, [r0]
 1721 000a FFF7FEFF 		bl	TIM_CCxNChannelCmd
 1722 000e 2368     		ldr	r3, [r4]
 1723 0010 196A     		ldr	r1, [r3, #32]
 1724 0012 41F21112 		movw	r2, #4369
 1725 0016 1142     		tst	r1, r2
 1726 0018 08D1     		bne	.L229
 1727 001a 196A     		ldr	r1, [r3, #32]
 1728 001c 40F24442 		movw	r2, #1092
 1729 0020 1142     		tst	r1, r2
 1730 0022 03D1     		bne	.L229
 1731 0024 5A6C     		ldr	r2, [r3, #68]
 1732 0026 22F40042 		bic	r2, r2, #32768
 1733 002a 5A64     		str	r2, [r3, #68]
 1734              	.L229:
 1735 002c 2368     		ldr	r3, [r4]
 1736 002e 196A     		ldr	r1, [r3, #32]
 1737 0030 41F21112 		movw	r2, #4369
 1738 0034 1142     		tst	r1, r2
 1739 0036 08D1     		bne	.L230
 1740 0038 196A     		ldr	r1, [r3, #32]
 1741 003a 40F24442 		movw	r2, #1092
 1742 003e 1142     		tst	r1, r2
 1743 0040 03D1     		bne	.L230
 1744 0042 1A68     		ldr	r2, [r3]
 1745 0044 22F00102 		bic	r2, r2, #1
 1746 0048 1A60     		str	r2, [r3]
 1747              	.L230:
 1748 004a 25B9     		cbnz	r5, .L231
 1749 004c 0123     		movs	r3, #1
 1750 004e 84F84230 		strb	r3, [r4, #66]
 1751              	.L232:
ARM GAS  /tmp/ccYPPKI6.s 			page 31


 1752 0052 0020     		movs	r0, #0
 1753 0054 38BD     		pop	{r3, r4, r5, pc}
 1754              	.L231:
 1755 0056 042D     		cmp	r5, #4
 1756 0058 05D0     		beq	.L236
 1757 005a 082D     		cmp	r5, #8
 1758 005c 07D0     		beq	.L237
 1759 005e 0123     		movs	r3, #1
 1760 0060 84F84530 		strb	r3, [r4, #69]
 1761 0064 F5E7     		b	.L232
 1762              	.L236:
 1763 0066 0123     		movs	r3, #1
 1764 0068 84F84330 		strb	r3, [r4, #67]
 1765 006c F1E7     		b	.L232
 1766              	.L237:
 1767 006e 0123     		movs	r3, #1
 1768 0070 84F84430 		strb	r3, [r4, #68]
 1769 0074 EDE7     		b	.L232
 1771              		.section	.text.HAL_TIMEx_PWMN_Start_IT,"ax",%progbits
 1772              		.align	1
 1773              		.global	HAL_TIMEx_PWMN_Start_IT
 1774              		.syntax unified
 1775              		.thumb
 1776              		.thumb_func
 1777              		.fpu fpv4-sp-d16
 1779              	HAL_TIMEx_PWMN_Start_IT:
 1780              		@ args = 0, pretend = 0, frame = 0
 1781              		@ frame_needed = 0, uses_anonymous_args = 0
 1782 0000 10B5     		push	{r4, lr}
 1783 0002 0446     		mov	r4, r0
 1784 0004 0846     		mov	r0, r1
 1785 0006 99B9     		cbnz	r1, .L239
 1786 0008 94F84230 		ldrb	r3, [r4, #66]	@ zero_extendqisi2
 1787 000c DBB2     		uxtb	r3, r3
 1788 000e 013B     		subs	r3, r3, #1
 1789 0010 18BF     		it	ne
 1790 0012 0123     		movne	r3, #1
 1791              	.L240:
 1792 0014 002B     		cmp	r3, #0
 1793 0016 40F08480 		bne	.L253
 1794 001a 10BB     		cbnz	r0, .L244
 1795 001c 0223     		movs	r3, #2
 1796 001e 84F84230 		strb	r3, [r4, #66]
 1797              	.L245:
 1798 0022 0428     		cmp	r0, #4
 1799 0024 66D0     		beq	.L248
 1800 0026 0828     		cmp	r0, #8
 1801 0028 6AD0     		beq	.L249
 1802 002a 50B3     		cbz	r0, .L257
 1803 002c 0120     		movs	r0, #1
 1804              	.L243:
 1805 002e 10BD     		pop	{r4, pc}
 1806              	.L239:
 1807 0030 0429     		cmp	r1, #4
 1808 0032 08D0     		beq	.L258
 1809 0034 0829     		cmp	r1, #8
 1810 0036 0DD0     		beq	.L259
ARM GAS  /tmp/ccYPPKI6.s 			page 32


 1811 0038 94F84530 		ldrb	r3, [r4, #69]	@ zero_extendqisi2
 1812 003c DBB2     		uxtb	r3, r3
 1813 003e 013B     		subs	r3, r3, #1
 1814 0040 18BF     		it	ne
 1815 0042 0123     		movne	r3, #1
 1816 0044 E6E7     		b	.L240
 1817              	.L258:
 1818 0046 94F84330 		ldrb	r3, [r4, #67]	@ zero_extendqisi2
 1819 004a DBB2     		uxtb	r3, r3
 1820 004c 013B     		subs	r3, r3, #1
 1821 004e 18BF     		it	ne
 1822 0050 0123     		movne	r3, #1
 1823 0052 DFE7     		b	.L240
 1824              	.L259:
 1825 0054 94F84430 		ldrb	r3, [r4, #68]	@ zero_extendqisi2
 1826 0058 DBB2     		uxtb	r3, r3
 1827 005a 013B     		subs	r3, r3, #1
 1828 005c 18BF     		it	ne
 1829 005e 0123     		movne	r3, #1
 1830 0060 D8E7     		b	.L240
 1831              	.L244:
 1832 0062 0428     		cmp	r0, #4
 1833 0064 05D0     		beq	.L260
 1834 0066 0828     		cmp	r0, #8
 1835 0068 07D0     		beq	.L261
 1836 006a 0223     		movs	r3, #2
 1837 006c 84F84530 		strb	r3, [r4, #69]
 1838 0070 D7E7     		b	.L245
 1839              	.L260:
 1840 0072 0223     		movs	r3, #2
 1841 0074 84F84330 		strb	r3, [r4, #67]
 1842 0078 D3E7     		b	.L245
 1843              	.L261:
 1844 007a 0223     		movs	r3, #2
 1845 007c 84F84430 		strb	r3, [r4, #68]
 1846 0080 CFE7     		b	.L245
 1847              	.L257:
 1848 0082 2268     		ldr	r2, [r4]
 1849 0084 D368     		ldr	r3, [r2, #12]
 1850 0086 43F00203 		orr	r3, r3, #2
 1851 008a D360     		str	r3, [r2, #12]
 1852              	.L250:
 1853 008c 2268     		ldr	r2, [r4]
 1854 008e D368     		ldr	r3, [r2, #12]
 1855 0090 43F08003 		orr	r3, r3, #128
 1856 0094 D360     		str	r3, [r2, #12]
 1857 0096 0422     		movs	r2, #4
 1858 0098 0146     		mov	r1, r0
 1859 009a 2068     		ldr	r0, [r4]
 1860 009c FFF7FEFF 		bl	TIM_CCxNChannelCmd
 1861 00a0 2268     		ldr	r2, [r4]
 1862 00a2 536C     		ldr	r3, [r2, #68]
 1863 00a4 43F40043 		orr	r3, r3, #32768
 1864 00a8 5364     		str	r3, [r2, #68]
 1865 00aa 2368     		ldr	r3, [r4]
 1866 00ac 1F4A     		ldr	r2, .L262
 1867 00ae 9342     		cmp	r3, r2
ARM GAS  /tmp/ccYPPKI6.s 			page 33


 1868 00b0 2CD0     		beq	.L251
 1869 00b2 B3F1804F 		cmp	r3, #1073741824
 1870 00b6 29D0     		beq	.L251
 1871 00b8 A2F57C42 		sub	r2, r2, #64512
 1872 00bc 9342     		cmp	r3, r2
 1873 00be 25D0     		beq	.L251
 1874 00c0 02F58062 		add	r2, r2, #1024
 1875 00c4 9342     		cmp	r3, r2
 1876 00c6 21D0     		beq	.L251
 1877 00c8 02F58062 		add	r2, r2, #1024
 1878 00cc 9342     		cmp	r3, r2
 1879 00ce 1DD0     		beq	.L251
 1880 00d0 02F57842 		add	r2, r2, #63488
 1881 00d4 9342     		cmp	r3, r2
 1882 00d6 19D0     		beq	.L251
 1883 00d8 02F57052 		add	r2, r2, #15360
 1884 00dc 9342     		cmp	r3, r2
 1885 00de 15D0     		beq	.L251
 1886 00e0 A2F59432 		sub	r2, r2, #75776
 1887 00e4 9342     		cmp	r3, r2
 1888 00e6 11D0     		beq	.L251
 1889 00e8 1A68     		ldr	r2, [r3]
 1890 00ea 42F00102 		orr	r2, r2, #1
 1891 00ee 1A60     		str	r2, [r3]
 1892 00f0 0020     		movs	r0, #0
 1893 00f2 9CE7     		b	.L243
 1894              	.L248:
 1895 00f4 2268     		ldr	r2, [r4]
 1896 00f6 D368     		ldr	r3, [r2, #12]
 1897 00f8 43F00403 		orr	r3, r3, #4
 1898 00fc D360     		str	r3, [r2, #12]
 1899 00fe C5E7     		b	.L250
 1900              	.L249:
 1901 0100 2268     		ldr	r2, [r4]
 1902 0102 D368     		ldr	r3, [r2, #12]
 1903 0104 43F00803 		orr	r3, r3, #8
 1904 0108 D360     		str	r3, [r2, #12]
 1905 010a BFE7     		b	.L250
 1906              	.L251:
 1907 010c 9A68     		ldr	r2, [r3, #8]
 1908 010e 02F00702 		and	r2, r2, #7
 1909 0112 062A     		cmp	r2, #6
 1910 0114 07D0     		beq	.L255
 1911 0116 1A68     		ldr	r2, [r3]
 1912 0118 42F00102 		orr	r2, r2, #1
 1913 011c 1A60     		str	r2, [r3]
 1914 011e 0020     		movs	r0, #0
 1915 0120 85E7     		b	.L243
 1916              	.L253:
 1917 0122 0120     		movs	r0, #1
 1918 0124 83E7     		b	.L243
 1919              	.L255:
 1920 0126 0020     		movs	r0, #0
 1921 0128 81E7     		b	.L243
 1922              	.L263:
 1923 012a 00BF     		.align	2
 1924              	.L262:
ARM GAS  /tmp/ccYPPKI6.s 			page 34


 1925 012c 00000140 		.word	1073807360
 1927              		.section	.text.HAL_TIMEx_PWMN_Stop_IT,"ax",%progbits
 1928              		.align	1
 1929              		.global	HAL_TIMEx_PWMN_Stop_IT
 1930              		.syntax unified
 1931              		.thumb
 1932              		.thumb_func
 1933              		.fpu fpv4-sp-d16
 1935              	HAL_TIMEx_PWMN_Stop_IT:
 1936              		@ args = 0, pretend = 0, frame = 0
 1937              		@ frame_needed = 0, uses_anonymous_args = 0
 1938 0000 38B5     		push	{r3, r4, r5, lr}
 1939 0002 0546     		mov	r5, r0
 1940 0004 0C46     		mov	r4, r1
 1941 0006 0429     		cmp	r1, #4
 1942 0008 3CD0     		beq	.L265
 1943 000a 0829     		cmp	r1, #8
 1944 000c 40D0     		beq	.L266
 1945 000e 09B1     		cbz	r1, .L277
 1946 0010 0120     		movs	r0, #1
 1947              	.L267:
 1948 0012 38BD     		pop	{r3, r4, r5, pc}
 1949              	.L277:
 1950 0014 0268     		ldr	r2, [r0]
 1951 0016 D368     		ldr	r3, [r2, #12]
 1952 0018 23F00203 		bic	r3, r3, #2
 1953 001c D360     		str	r3, [r2, #12]
 1954              	.L268:
 1955 001e 0022     		movs	r2, #0
 1956 0020 2146     		mov	r1, r4
 1957 0022 2868     		ldr	r0, [r5]
 1958 0024 FFF7FEFF 		bl	TIM_CCxNChannelCmd
 1959 0028 2B68     		ldr	r3, [r5]
 1960 002a 196A     		ldr	r1, [r3, #32]
 1961 002c 40F24442 		movw	r2, #1092
 1962 0030 1142     		tst	r1, r2
 1963 0032 03D1     		bne	.L269
 1964 0034 DA68     		ldr	r2, [r3, #12]
 1965 0036 22F08002 		bic	r2, r2, #128
 1966 003a DA60     		str	r2, [r3, #12]
 1967              	.L269:
 1968 003c 2B68     		ldr	r3, [r5]
 1969 003e 196A     		ldr	r1, [r3, #32]
 1970 0040 41F21112 		movw	r2, #4369
 1971 0044 1142     		tst	r1, r2
 1972 0046 08D1     		bne	.L270
 1973 0048 196A     		ldr	r1, [r3, #32]
 1974 004a 40F24442 		movw	r2, #1092
 1975 004e 1142     		tst	r1, r2
 1976 0050 03D1     		bne	.L270
 1977 0052 5A6C     		ldr	r2, [r3, #68]
 1978 0054 22F40042 		bic	r2, r2, #32768
 1979 0058 5A64     		str	r2, [r3, #68]
 1980              	.L270:
 1981 005a 2B68     		ldr	r3, [r5]
 1982 005c 196A     		ldr	r1, [r3, #32]
 1983 005e 41F21112 		movw	r2, #4369
ARM GAS  /tmp/ccYPPKI6.s 			page 35


 1984 0062 1142     		tst	r1, r2
 1985 0064 08D1     		bne	.L271
 1986 0066 196A     		ldr	r1, [r3, #32]
 1987 0068 40F24442 		movw	r2, #1092
 1988 006c 1142     		tst	r1, r2
 1989 006e 03D1     		bne	.L271
 1990 0070 1A68     		ldr	r2, [r3]
 1991 0072 22F00102 		bic	r2, r2, #1
 1992 0076 1A60     		str	r2, [r3]
 1993              	.L271:
 1994 0078 84B9     		cbnz	r4, .L272
 1995 007a 0123     		movs	r3, #1
 1996 007c 85F84230 		strb	r3, [r5, #66]
 1997 0080 0020     		movs	r0, #0
 1998 0082 C6E7     		b	.L267
 1999              	.L265:
 2000 0084 0268     		ldr	r2, [r0]
 2001 0086 D368     		ldr	r3, [r2, #12]
 2002 0088 23F00403 		bic	r3, r3, #4
 2003 008c D360     		str	r3, [r2, #12]
 2004 008e C6E7     		b	.L268
 2005              	.L266:
 2006 0090 0268     		ldr	r2, [r0]
 2007 0092 D368     		ldr	r3, [r2, #12]
 2008 0094 23F00803 		bic	r3, r3, #8
 2009 0098 D360     		str	r3, [r2, #12]
 2010 009a C0E7     		b	.L268
 2011              	.L272:
 2012 009c 042C     		cmp	r4, #4
 2013 009e 06D0     		beq	.L278
 2014 00a0 082C     		cmp	r4, #8
 2015 00a2 09D0     		beq	.L279
 2016 00a4 0123     		movs	r3, #1
 2017 00a6 85F84530 		strb	r3, [r5, #69]
 2018 00aa 0020     		movs	r0, #0
 2019 00ac B1E7     		b	.L267
 2020              	.L278:
 2021 00ae 0123     		movs	r3, #1
 2022 00b0 85F84330 		strb	r3, [r5, #67]
 2023 00b4 0020     		movs	r0, #0
 2024 00b6 ACE7     		b	.L267
 2025              	.L279:
 2026 00b8 0123     		movs	r3, #1
 2027 00ba 85F84430 		strb	r3, [r5, #68]
 2028 00be 0020     		movs	r0, #0
 2029 00c0 A7E7     		b	.L267
 2031              		.section	.text.HAL_TIMEx_PWMN_Start_DMA,"ax",%progbits
 2032              		.align	1
 2033              		.global	HAL_TIMEx_PWMN_Start_DMA
 2034              		.syntax unified
 2035              		.thumb
 2036              		.thumb_func
 2037              		.fpu fpv4-sp-d16
 2039              	HAL_TIMEx_PWMN_Start_DMA:
 2040              		@ args = 0, pretend = 0, frame = 0
 2041              		@ frame_needed = 0, uses_anonymous_args = 0
 2042 0000 70B5     		push	{r4, r5, r6, lr}
ARM GAS  /tmp/ccYPPKI6.s 			page 36


 2043 0002 0446     		mov	r4, r0
 2044 0004 1646     		mov	r6, r2
 2045 0006 0D46     		mov	r5, r1
 2046 0008 31BB     		cbnz	r1, .L281
 2047 000a 90F84200 		ldrb	r0, [r0, #66]	@ zero_extendqisi2
 2048 000e C0B2     		uxtb	r0, r0
 2049 0010 0228     		cmp	r0, #2
 2050 0012 14BF     		ite	ne
 2051 0014 0020     		movne	r0, #0
 2052 0016 0120     		moveq	r0, #1
 2053              	.L282:
 2054 0018 0028     		cmp	r0, #0
 2055 001a 40F0E680 		bne	.L300
 2056 001e 002D     		cmp	r5, #0
 2057 0020 36D1     		bne	.L286
 2058 0022 94F84220 		ldrb	r2, [r4, #66]	@ zero_extendqisi2
 2059 0026 D2B2     		uxtb	r2, r2
 2060 0028 012A     		cmp	r2, #1
 2061 002a 14BF     		ite	ne
 2062 002c 0022     		movne	r2, #0
 2063 002e 0122     		moveq	r2, #1
 2064              	.L287:
 2065 0030 002A     		cmp	r2, #0
 2066 0032 00F0DC80 		beq	.L301
 2067 0036 002E     		cmp	r6, #0
 2068 0038 46D0     		beq	.L309
 2069              	.L290:
 2070 003a 002D     		cmp	r5, #0
 2071 003c 48D1     		bne	.L291
 2072 003e 0222     		movs	r2, #2
 2073 0040 84F84220 		strb	r2, [r4, #66]
 2074              	.L292:
 2075 0044 042D     		cmp	r5, #4
 2076 0046 00F09880 		beq	.L295
 2077 004a 082D     		cmp	r5, #8
 2078 004c 00F0AC80 		beq	.L296
 2079 0050 002D     		cmp	r5, #0
 2080 0052 4DD0     		beq	.L310
 2081 0054 0120     		movs	r0, #1
 2082              	.L285:
 2083 0056 70BD     		pop	{r4, r5, r6, pc}
 2084              	.L281:
 2085 0058 0429     		cmp	r1, #4
 2086 005a 09D0     		beq	.L311
 2087 005c 0829     		cmp	r1, #8
 2088 005e 0FD0     		beq	.L312
 2089 0060 90F84500 		ldrb	r0, [r0, #69]	@ zero_extendqisi2
 2090 0064 C0B2     		uxtb	r0, r0
 2091 0066 0228     		cmp	r0, #2
 2092 0068 14BF     		ite	ne
 2093 006a 0020     		movne	r0, #0
 2094 006c 0120     		moveq	r0, #1
 2095 006e D3E7     		b	.L282
 2096              	.L311:
 2097 0070 90F84300 		ldrb	r0, [r0, #67]	@ zero_extendqisi2
 2098 0074 C0B2     		uxtb	r0, r0
 2099 0076 0228     		cmp	r0, #2
ARM GAS  /tmp/ccYPPKI6.s 			page 37


 2100 0078 14BF     		ite	ne
 2101 007a 0020     		movne	r0, #0
 2102 007c 0120     		moveq	r0, #1
 2103 007e CBE7     		b	.L282
 2104              	.L312:
 2105 0080 90F84400 		ldrb	r0, [r0, #68]	@ zero_extendqisi2
 2106 0084 C0B2     		uxtb	r0, r0
 2107 0086 0228     		cmp	r0, #2
 2108 0088 14BF     		ite	ne
 2109 008a 0020     		movne	r0, #0
 2110 008c 0120     		moveq	r0, #1
 2111 008e C3E7     		b	.L282
 2112              	.L286:
 2113 0090 042D     		cmp	r5, #4
 2114 0092 09D0     		beq	.L313
 2115 0094 082D     		cmp	r5, #8
 2116 0096 0FD0     		beq	.L314
 2117 0098 94F84520 		ldrb	r2, [r4, #69]	@ zero_extendqisi2
 2118 009c D2B2     		uxtb	r2, r2
 2119 009e 012A     		cmp	r2, #1
 2120 00a0 14BF     		ite	ne
 2121 00a2 0022     		movne	r2, #0
 2122 00a4 0122     		moveq	r2, #1
 2123 00a6 C3E7     		b	.L287
 2124              	.L313:
 2125 00a8 94F84320 		ldrb	r2, [r4, #67]	@ zero_extendqisi2
 2126 00ac D2B2     		uxtb	r2, r2
 2127 00ae 012A     		cmp	r2, #1
 2128 00b0 14BF     		ite	ne
 2129 00b2 0022     		movne	r2, #0
 2130 00b4 0122     		moveq	r2, #1
 2131 00b6 BBE7     		b	.L287
 2132              	.L314:
 2133 00b8 94F84420 		ldrb	r2, [r4, #68]	@ zero_extendqisi2
 2134 00bc D2B2     		uxtb	r2, r2
 2135 00be 012A     		cmp	r2, #1
 2136 00c0 14BF     		ite	ne
 2137 00c2 0022     		movne	r2, #0
 2138 00c4 0122     		moveq	r2, #1
 2139 00c6 B3E7     		b	.L287
 2140              	.L309:
 2141 00c8 002B     		cmp	r3, #0
 2142 00ca B6D0     		beq	.L290
 2143 00cc 0120     		movs	r0, #1
 2144 00ce C2E7     		b	.L285
 2145              	.L291:
 2146 00d0 042D     		cmp	r5, #4
 2147 00d2 05D0     		beq	.L315
 2148 00d4 082D     		cmp	r5, #8
 2149 00d6 07D0     		beq	.L316
 2150 00d8 0222     		movs	r2, #2
 2151 00da 84F84520 		strb	r2, [r4, #69]
 2152 00de B1E7     		b	.L292
 2153              	.L315:
 2154 00e0 0222     		movs	r2, #2
 2155 00e2 84F84320 		strb	r2, [r4, #67]
 2156 00e6 ADE7     		b	.L292
ARM GAS  /tmp/ccYPPKI6.s 			page 38


 2157              	.L316:
 2158 00e8 0222     		movs	r2, #2
 2159 00ea 84F84420 		strb	r2, [r4, #68]
 2160 00ee A9E7     		b	.L292
 2161              	.L310:
 2162 00f0 626A     		ldr	r2, [r4, #36]
 2163 00f2 4449     		ldr	r1, .L317
 2164 00f4 D163     		str	r1, [r2, #60]
 2165 00f6 626A     		ldr	r2, [r4, #36]
 2166 00f8 4349     		ldr	r1, .L317+4
 2167 00fa 1164     		str	r1, [r2, #64]
 2168 00fc 626A     		ldr	r2, [r4, #36]
 2169 00fe 4349     		ldr	r1, .L317+8
 2170 0100 D164     		str	r1, [r2, #76]
 2171 0102 2268     		ldr	r2, [r4]
 2172 0104 3432     		adds	r2, r2, #52
 2173 0106 3146     		mov	r1, r6
 2174 0108 606A     		ldr	r0, [r4, #36]
 2175 010a FFF7FEFF 		bl	HAL_DMA_Start_IT
 2176 010e 0028     		cmp	r0, #0
 2177 0110 6FD1     		bne	.L304
 2178 0112 2268     		ldr	r2, [r4]
 2179 0114 D368     		ldr	r3, [r2, #12]
 2180 0116 43F40073 		orr	r3, r3, #512
 2181 011a D360     		str	r3, [r2, #12]
 2182              	.L297:
 2183 011c 0422     		movs	r2, #4
 2184 011e 2946     		mov	r1, r5
 2185 0120 2068     		ldr	r0, [r4]
 2186 0122 FFF7FEFF 		bl	TIM_CCxNChannelCmd
 2187 0126 2268     		ldr	r2, [r4]
 2188 0128 536C     		ldr	r3, [r2, #68]
 2189 012a 43F40043 		orr	r3, r3, #32768
 2190 012e 5364     		str	r3, [r2, #68]
 2191 0130 2368     		ldr	r3, [r4]
 2192 0132 374A     		ldr	r2, .L317+12
 2193 0134 9342     		cmp	r3, r2
 2194 0136 4DD0     		beq	.L298
 2195 0138 B3F1804F 		cmp	r3, #1073741824
 2196 013c 4AD0     		beq	.L298
 2197 013e A2F57C42 		sub	r2, r2, #64512
 2198 0142 9342     		cmp	r3, r2
 2199 0144 46D0     		beq	.L298
 2200 0146 02F58062 		add	r2, r2, #1024
 2201 014a 9342     		cmp	r3, r2
 2202 014c 42D0     		beq	.L298
 2203 014e 02F58062 		add	r2, r2, #1024
 2204 0152 9342     		cmp	r3, r2
 2205 0154 3ED0     		beq	.L298
 2206 0156 02F57842 		add	r2, r2, #63488
 2207 015a 9342     		cmp	r3, r2
 2208 015c 3AD0     		beq	.L298
 2209 015e 02F57052 		add	r2, r2, #15360
 2210 0162 9342     		cmp	r3, r2
 2211 0164 36D0     		beq	.L298
 2212 0166 A2F59432 		sub	r2, r2, #75776
 2213 016a 9342     		cmp	r3, r2
ARM GAS  /tmp/ccYPPKI6.s 			page 39


 2214 016c 32D0     		beq	.L298
 2215 016e 1A68     		ldr	r2, [r3]
 2216 0170 42F00102 		orr	r2, r2, #1
 2217 0174 1A60     		str	r2, [r3]
 2218 0176 0020     		movs	r0, #0
 2219 0178 6DE7     		b	.L285
 2220              	.L295:
 2221 017a A26A     		ldr	r2, [r4, #40]
 2222 017c 2149     		ldr	r1, .L317
 2223 017e D163     		str	r1, [r2, #60]
 2224 0180 A26A     		ldr	r2, [r4, #40]
 2225 0182 2149     		ldr	r1, .L317+4
 2226 0184 1164     		str	r1, [r2, #64]
 2227 0186 A26A     		ldr	r2, [r4, #40]
 2228 0188 2049     		ldr	r1, .L317+8
 2229 018a D164     		str	r1, [r2, #76]
 2230 018c 2268     		ldr	r2, [r4]
 2231 018e 3832     		adds	r2, r2, #56
 2232 0190 3146     		mov	r1, r6
 2233 0192 A06A     		ldr	r0, [r4, #40]
 2234 0194 FFF7FEFF 		bl	HAL_DMA_Start_IT
 2235 0198 0028     		cmp	r0, #0
 2236 019a 2CD1     		bne	.L305
 2237 019c 2268     		ldr	r2, [r4]
 2238 019e D368     		ldr	r3, [r2, #12]
 2239 01a0 43F48063 		orr	r3, r3, #1024
 2240 01a4 D360     		str	r3, [r2, #12]
 2241 01a6 B9E7     		b	.L297
 2242              	.L296:
 2243 01a8 E26A     		ldr	r2, [r4, #44]
 2244 01aa 1649     		ldr	r1, .L317
 2245 01ac D163     		str	r1, [r2, #60]
 2246 01ae E26A     		ldr	r2, [r4, #44]
 2247 01b0 1549     		ldr	r1, .L317+4
 2248 01b2 1164     		str	r1, [r2, #64]
 2249 01b4 E26A     		ldr	r2, [r4, #44]
 2250 01b6 1549     		ldr	r1, .L317+8
 2251 01b8 D164     		str	r1, [r2, #76]
 2252 01ba 2268     		ldr	r2, [r4]
 2253 01bc 3C32     		adds	r2, r2, #60
 2254 01be 3146     		mov	r1, r6
 2255 01c0 E06A     		ldr	r0, [r4, #44]
 2256 01c2 FFF7FEFF 		bl	HAL_DMA_Start_IT
 2257 01c6 C0B9     		cbnz	r0, .L306
 2258 01c8 2268     		ldr	r2, [r4]
 2259 01ca D368     		ldr	r3, [r2, #12]
 2260 01cc 43F40063 		orr	r3, r3, #2048
 2261 01d0 D360     		str	r3, [r2, #12]
 2262 01d2 A3E7     		b	.L297
 2263              	.L298:
 2264 01d4 9A68     		ldr	r2, [r3, #8]
 2265 01d6 02F00702 		and	r2, r2, #7
 2266 01da 062A     		cmp	r2, #6
 2267 01dc 0FD0     		beq	.L307
 2268 01de 1A68     		ldr	r2, [r3]
 2269 01e0 42F00102 		orr	r2, r2, #1
 2270 01e4 1A60     		str	r2, [r3]
ARM GAS  /tmp/ccYPPKI6.s 			page 40


 2271 01e6 0020     		movs	r0, #0
 2272 01e8 35E7     		b	.L285
 2273              	.L300:
 2274 01ea 0220     		movs	r0, #2
 2275 01ec 33E7     		b	.L285
 2276              	.L301:
 2277 01ee 0120     		movs	r0, #1
 2278 01f0 31E7     		b	.L285
 2279              	.L304:
 2280 01f2 0120     		movs	r0, #1
 2281 01f4 2FE7     		b	.L285
 2282              	.L305:
 2283 01f6 0120     		movs	r0, #1
 2284 01f8 2DE7     		b	.L285
 2285              	.L306:
 2286 01fa 0120     		movs	r0, #1
 2287 01fc 2BE7     		b	.L285
 2288              	.L307:
 2289 01fe 0020     		movs	r0, #0
 2290 0200 29E7     		b	.L285
 2291              	.L318:
 2292 0202 00BF     		.align	2
 2293              	.L317:
 2294 0204 00000000 		.word	TIM_DMADelayPulseNCplt
 2295 0208 00000000 		.word	TIM_DMADelayPulseHalfCplt
 2296 020c 00000000 		.word	TIM_DMAErrorCCxN
 2297 0210 00000140 		.word	1073807360
 2299              		.section	.text.HAL_TIMEx_PWMN_Stop_DMA,"ax",%progbits
 2300              		.align	1
 2301              		.global	HAL_TIMEx_PWMN_Stop_DMA
 2302              		.syntax unified
 2303              		.thumb
 2304              		.thumb_func
 2305              		.fpu fpv4-sp-d16
 2307              	HAL_TIMEx_PWMN_Stop_DMA:
 2308              		@ args = 0, pretend = 0, frame = 0
 2309              		@ frame_needed = 0, uses_anonymous_args = 0
 2310 0000 38B5     		push	{r3, r4, r5, lr}
 2311 0002 0546     		mov	r5, r0
 2312 0004 0C46     		mov	r4, r1
 2313 0006 0429     		cmp	r1, #4
 2314 0008 35D0     		beq	.L320
 2315 000a 0829     		cmp	r1, #8
 2316 000c 3CD0     		beq	.L321
 2317 000e 09B1     		cbz	r1, .L331
 2318 0010 0120     		movs	r0, #1
 2319              	.L322:
 2320 0012 38BD     		pop	{r3, r4, r5, pc}
 2321              	.L331:
 2322 0014 0268     		ldr	r2, [r0]
 2323 0016 D368     		ldr	r3, [r2, #12]
 2324 0018 23F40073 		bic	r3, r3, #512
 2325 001c D360     		str	r3, [r2, #12]
 2326 001e 406A     		ldr	r0, [r0, #36]
 2327 0020 FFF7FEFF 		bl	HAL_DMA_Abort_IT
 2328              	.L323:
 2329 0024 0022     		movs	r2, #0
ARM GAS  /tmp/ccYPPKI6.s 			page 41


 2330 0026 2146     		mov	r1, r4
 2331 0028 2868     		ldr	r0, [r5]
 2332 002a FFF7FEFF 		bl	TIM_CCxNChannelCmd
 2333 002e 2B68     		ldr	r3, [r5]
 2334 0030 196A     		ldr	r1, [r3, #32]
 2335 0032 41F21112 		movw	r2, #4369
 2336 0036 1142     		tst	r1, r2
 2337 0038 08D1     		bne	.L324
 2338 003a 196A     		ldr	r1, [r3, #32]
 2339 003c 40F24442 		movw	r2, #1092
 2340 0040 1142     		tst	r1, r2
 2341 0042 03D1     		bne	.L324
 2342 0044 5A6C     		ldr	r2, [r3, #68]
 2343 0046 22F40042 		bic	r2, r2, #32768
 2344 004a 5A64     		str	r2, [r3, #68]
 2345              	.L324:
 2346 004c 2B68     		ldr	r3, [r5]
 2347 004e 196A     		ldr	r1, [r3, #32]
 2348 0050 41F21112 		movw	r2, #4369
 2349 0054 1142     		tst	r1, r2
 2350 0056 08D1     		bne	.L325
 2351 0058 196A     		ldr	r1, [r3, #32]
 2352 005a 40F24442 		movw	r2, #1092
 2353 005e 1142     		tst	r1, r2
 2354 0060 03D1     		bne	.L325
 2355 0062 1A68     		ldr	r2, [r3]
 2356 0064 22F00102 		bic	r2, r2, #1
 2357 0068 1A60     		str	r2, [r3]
 2358              	.L325:
 2359 006a B4B9     		cbnz	r4, .L326
 2360 006c 0123     		movs	r3, #1
 2361 006e 85F84230 		strb	r3, [r5, #66]
 2362 0072 0020     		movs	r0, #0
 2363 0074 CDE7     		b	.L322
 2364              	.L320:
 2365 0076 0268     		ldr	r2, [r0]
 2366 0078 D368     		ldr	r3, [r2, #12]
 2367 007a 23F48063 		bic	r3, r3, #1024
 2368 007e D360     		str	r3, [r2, #12]
 2369 0080 806A     		ldr	r0, [r0, #40]
 2370 0082 FFF7FEFF 		bl	HAL_DMA_Abort_IT
 2371 0086 CDE7     		b	.L323
 2372              	.L321:
 2373 0088 0268     		ldr	r2, [r0]
 2374 008a D368     		ldr	r3, [r2, #12]
 2375 008c 23F40063 		bic	r3, r3, #2048
 2376 0090 D360     		str	r3, [r2, #12]
 2377 0092 C06A     		ldr	r0, [r0, #44]
 2378 0094 FFF7FEFF 		bl	HAL_DMA_Abort_IT
 2379 0098 C4E7     		b	.L323
 2380              	.L326:
 2381 009a 042C     		cmp	r4, #4
 2382 009c 06D0     		beq	.L332
 2383 009e 082C     		cmp	r4, #8
 2384 00a0 09D0     		beq	.L333
 2385 00a2 0123     		movs	r3, #1
 2386 00a4 85F84530 		strb	r3, [r5, #69]
ARM GAS  /tmp/ccYPPKI6.s 			page 42


 2387 00a8 0020     		movs	r0, #0
 2388 00aa B2E7     		b	.L322
 2389              	.L332:
 2390 00ac 0123     		movs	r3, #1
 2391 00ae 85F84330 		strb	r3, [r5, #67]
 2392 00b2 0020     		movs	r0, #0
 2393 00b4 ADE7     		b	.L322
 2394              	.L333:
 2395 00b6 0123     		movs	r3, #1
 2396 00b8 85F84430 		strb	r3, [r5, #68]
 2397 00bc 0020     		movs	r0, #0
 2398 00be A8E7     		b	.L322
 2400              		.section	.text.HAL_TIMEx_OnePulseN_Start,"ax",%progbits
 2401              		.align	1
 2402              		.global	HAL_TIMEx_OnePulseN_Start
 2403              		.syntax unified
 2404              		.thumb
 2405              		.thumb_func
 2406              		.fpu fpv4-sp-d16
 2408              	HAL_TIMEx_OnePulseN_Start:
 2409              		@ args = 0, pretend = 0, frame = 0
 2410              		@ frame_needed = 0, uses_anonymous_args = 0
 2411 0000 38B5     		push	{r3, r4, r5, lr}
 2412 0002 0446     		mov	r4, r0
 2413 0004 8E46     		mov	lr, r1
 2414 0006 C1B9     		cbnz	r1, .L337
 2415 0008 0425     		movs	r5, #4
 2416              	.L335:
 2417 000a 94F83E00 		ldrb	r0, [r4, #62]	@ zero_extendqisi2
 2418 000e C0B2     		uxtb	r0, r0
 2419 0010 94F83F30 		ldrb	r3, [r4, #63]	@ zero_extendqisi2
 2420 0014 DBB2     		uxtb	r3, r3
 2421 0016 94F84220 		ldrb	r2, [r4, #66]	@ zero_extendqisi2
 2422 001a D2B2     		uxtb	r2, r2
 2423 001c 94F843C0 		ldrb	ip, [r4, #67]	@ zero_extendqisi2
 2424 0020 5FFA8CFC 		uxtb	ip, ip
 2425 0024 0128     		cmp	r0, #1
 2426 0026 24D1     		bne	.L338
 2427 0028 012B     		cmp	r3, #1
 2428 002a 23D1     		bne	.L336
 2429 002c 012A     		cmp	r2, #1
 2430 002e 22D1     		bne	.L339
 2431 0030 BCF1010F 		cmp	ip, #1
 2432 0034 03D0     		beq	.L342
 2433 0036 1046     		mov	r0, r2
 2434 0038 1CE0     		b	.L336
 2435              	.L337:
 2436 003a 0025     		movs	r5, #0
 2437 003c E5E7     		b	.L335
 2438              	.L342:
 2439 003e 0223     		movs	r3, #2
 2440 0040 84F83E30 		strb	r3, [r4, #62]
 2441 0044 84F83F30 		strb	r3, [r4, #63]
 2442 0048 84F84230 		strb	r3, [r4, #66]
 2443 004c 84F84330 		strb	r3, [r4, #67]
 2444 0050 0422     		movs	r2, #4
 2445 0052 7146     		mov	r1, lr
ARM GAS  /tmp/ccYPPKI6.s 			page 43


 2446 0054 2068     		ldr	r0, [r4]
 2447 0056 FFF7FEFF 		bl	TIM_CCxNChannelCmd
 2448 005a 0122     		movs	r2, #1
 2449 005c 2946     		mov	r1, r5
 2450 005e 2068     		ldr	r0, [r4]
 2451 0060 FFF7FEFF 		bl	TIM_CCxChannelCmd
 2452 0064 2268     		ldr	r2, [r4]
 2453 0066 536C     		ldr	r3, [r2, #68]
 2454 0068 43F40043 		orr	r3, r3, #32768
 2455 006c 5364     		str	r3, [r2, #68]
 2456 006e 0020     		movs	r0, #0
 2457 0070 00E0     		b	.L336
 2458              	.L338:
 2459 0072 0120     		movs	r0, #1
 2460              	.L336:
 2461 0074 38BD     		pop	{r3, r4, r5, pc}
 2462              	.L339:
 2463 0076 1846     		mov	r0, r3
 2464 0078 FCE7     		b	.L336
 2466              		.section	.text.HAL_TIMEx_OnePulseN_Stop,"ax",%progbits
 2467              		.align	1
 2468              		.global	HAL_TIMEx_OnePulseN_Stop
 2469              		.syntax unified
 2470              		.thumb
 2471              		.thumb_func
 2472              		.fpu fpv4-sp-d16
 2474              	HAL_TIMEx_OnePulseN_Stop:
 2475              		@ args = 0, pretend = 0, frame = 0
 2476              		@ frame_needed = 0, uses_anonymous_args = 0
 2477 0000 38B5     		push	{r3, r4, r5, lr}
 2478 0002 0446     		mov	r4, r0
 2479 0004 0029     		cmp	r1, #0
 2480 0006 32D1     		bne	.L347
 2481 0008 0425     		movs	r5, #4
 2482              	.L344:
 2483 000a 0022     		movs	r2, #0
 2484 000c 2068     		ldr	r0, [r4]
 2485 000e FFF7FEFF 		bl	TIM_CCxNChannelCmd
 2486 0012 0022     		movs	r2, #0
 2487 0014 2946     		mov	r1, r5
 2488 0016 2068     		ldr	r0, [r4]
 2489 0018 FFF7FEFF 		bl	TIM_CCxChannelCmd
 2490 001c 2368     		ldr	r3, [r4]
 2491 001e 196A     		ldr	r1, [r3, #32]
 2492 0020 41F21112 		movw	r2, #4369
 2493 0024 1142     		tst	r1, r2
 2494 0026 08D1     		bne	.L345
 2495 0028 196A     		ldr	r1, [r3, #32]
 2496 002a 40F24442 		movw	r2, #1092
 2497 002e 1142     		tst	r1, r2
 2498 0030 03D1     		bne	.L345
 2499 0032 5A6C     		ldr	r2, [r3, #68]
 2500 0034 22F40042 		bic	r2, r2, #32768
 2501 0038 5A64     		str	r2, [r3, #68]
 2502              	.L345:
 2503 003a 2368     		ldr	r3, [r4]
 2504 003c 196A     		ldr	r1, [r3, #32]
ARM GAS  /tmp/ccYPPKI6.s 			page 44


 2505 003e 41F21112 		movw	r2, #4369
 2506 0042 1142     		tst	r1, r2
 2507 0044 08D1     		bne	.L346
 2508 0046 196A     		ldr	r1, [r3, #32]
 2509 0048 40F24442 		movw	r2, #1092
 2510 004c 1142     		tst	r1, r2
 2511 004e 03D1     		bne	.L346
 2512 0050 1A68     		ldr	r2, [r3]
 2513 0052 22F00102 		bic	r2, r2, #1
 2514 0056 1A60     		str	r2, [r3]
 2515              	.L346:
 2516 0058 0123     		movs	r3, #1
 2517 005a 84F83E30 		strb	r3, [r4, #62]
 2518 005e 84F83F30 		strb	r3, [r4, #63]
 2519 0062 84F84230 		strb	r3, [r4, #66]
 2520 0066 84F84330 		strb	r3, [r4, #67]
 2521 006a 0020     		movs	r0, #0
 2522 006c 38BD     		pop	{r3, r4, r5, pc}
 2523              	.L347:
 2524 006e 0025     		movs	r5, #0
 2525 0070 CBE7     		b	.L344
 2527              		.section	.text.HAL_TIMEx_OnePulseN_Start_IT,"ax",%progbits
 2528              		.align	1
 2529              		.global	HAL_TIMEx_OnePulseN_Start_IT
 2530              		.syntax unified
 2531              		.thumb
 2532              		.thumb_func
 2533              		.fpu fpv4-sp-d16
 2535              	HAL_TIMEx_OnePulseN_Start_IT:
 2536              		@ args = 0, pretend = 0, frame = 0
 2537              		@ frame_needed = 0, uses_anonymous_args = 0
 2538 0000 38B5     		push	{r3, r4, r5, lr}
 2539 0002 0446     		mov	r4, r0
 2540 0004 8E46     		mov	lr, r1
 2541 0006 C1B9     		cbnz	r1, .L352
 2542 0008 0425     		movs	r5, #4
 2543              	.L350:
 2544 000a 94F83E00 		ldrb	r0, [r4, #62]	@ zero_extendqisi2
 2545 000e C0B2     		uxtb	r0, r0
 2546 0010 94F83F30 		ldrb	r3, [r4, #63]	@ zero_extendqisi2
 2547 0014 DBB2     		uxtb	r3, r3
 2548 0016 94F84220 		ldrb	r2, [r4, #66]	@ zero_extendqisi2
 2549 001a D2B2     		uxtb	r2, r2
 2550 001c 94F843C0 		ldrb	ip, [r4, #67]	@ zero_extendqisi2
 2551 0020 5FFA8CFC 		uxtb	ip, ip
 2552 0024 0128     		cmp	r0, #1
 2553 0026 2ED1     		bne	.L353
 2554 0028 012B     		cmp	r3, #1
 2555 002a 2DD1     		bne	.L351
 2556 002c 012A     		cmp	r2, #1
 2557 002e 2CD1     		bne	.L354
 2558 0030 BCF1010F 		cmp	ip, #1
 2559 0034 03D0     		beq	.L357
 2560 0036 1046     		mov	r0, r2
 2561 0038 26E0     		b	.L351
 2562              	.L352:
 2563 003a 0025     		movs	r5, #0
ARM GAS  /tmp/ccYPPKI6.s 			page 45


 2564 003c E5E7     		b	.L350
 2565              	.L357:
 2566 003e 0223     		movs	r3, #2
 2567 0040 84F83E30 		strb	r3, [r4, #62]
 2568 0044 84F83F30 		strb	r3, [r4, #63]
 2569 0048 84F84230 		strb	r3, [r4, #66]
 2570 004c 84F84330 		strb	r3, [r4, #67]
 2571 0050 2268     		ldr	r2, [r4]
 2572 0052 D368     		ldr	r3, [r2, #12]
 2573 0054 43F00203 		orr	r3, r3, #2
 2574 0058 D360     		str	r3, [r2, #12]
 2575 005a 2268     		ldr	r2, [r4]
 2576 005c D368     		ldr	r3, [r2, #12]
 2577 005e 43F00403 		orr	r3, r3, #4
 2578 0062 D360     		str	r3, [r2, #12]
 2579 0064 0422     		movs	r2, #4
 2580 0066 7146     		mov	r1, lr
 2581 0068 2068     		ldr	r0, [r4]
 2582 006a FFF7FEFF 		bl	TIM_CCxNChannelCmd
 2583 006e 0122     		movs	r2, #1
 2584 0070 2946     		mov	r1, r5
 2585 0072 2068     		ldr	r0, [r4]
 2586 0074 FFF7FEFF 		bl	TIM_CCxChannelCmd
 2587 0078 2268     		ldr	r2, [r4]
 2588 007a 536C     		ldr	r3, [r2, #68]
 2589 007c 43F40043 		orr	r3, r3, #32768
 2590 0080 5364     		str	r3, [r2, #68]
 2591 0082 0020     		movs	r0, #0
 2592 0084 00E0     		b	.L351
 2593              	.L353:
 2594 0086 0120     		movs	r0, #1
 2595              	.L351:
 2596 0088 38BD     		pop	{r3, r4, r5, pc}
 2597              	.L354:
 2598 008a 1846     		mov	r0, r3
 2599 008c FCE7     		b	.L351
 2601              		.section	.text.HAL_TIMEx_OnePulseN_Stop_IT,"ax",%progbits
 2602              		.align	1
 2603              		.global	HAL_TIMEx_OnePulseN_Stop_IT
 2604              		.syntax unified
 2605              		.thumb
 2606              		.thumb_func
 2607              		.fpu fpv4-sp-d16
 2609              	HAL_TIMEx_OnePulseN_Stop_IT:
 2610              		@ args = 0, pretend = 0, frame = 0
 2611              		@ frame_needed = 0, uses_anonymous_args = 0
 2612 0000 38B5     		push	{r3, r4, r5, lr}
 2613 0002 0446     		mov	r4, r0
 2614 0004 0029     		cmp	r1, #0
 2615 0006 3CD1     		bne	.L362
 2616 0008 0425     		movs	r5, #4
 2617              	.L359:
 2618 000a 2268     		ldr	r2, [r4]
 2619 000c D368     		ldr	r3, [r2, #12]
 2620 000e 23F00203 		bic	r3, r3, #2
 2621 0012 D360     		str	r3, [r2, #12]
 2622 0014 2268     		ldr	r2, [r4]
ARM GAS  /tmp/ccYPPKI6.s 			page 46


 2623 0016 D368     		ldr	r3, [r2, #12]
 2624 0018 23F00403 		bic	r3, r3, #4
 2625 001c D360     		str	r3, [r2, #12]
 2626 001e 0022     		movs	r2, #0
 2627 0020 2068     		ldr	r0, [r4]
 2628 0022 FFF7FEFF 		bl	TIM_CCxNChannelCmd
 2629 0026 0022     		movs	r2, #0
 2630 0028 2946     		mov	r1, r5
 2631 002a 2068     		ldr	r0, [r4]
 2632 002c FFF7FEFF 		bl	TIM_CCxChannelCmd
 2633 0030 2368     		ldr	r3, [r4]
 2634 0032 196A     		ldr	r1, [r3, #32]
 2635 0034 41F21112 		movw	r2, #4369
 2636 0038 1142     		tst	r1, r2
 2637 003a 08D1     		bne	.L360
 2638 003c 196A     		ldr	r1, [r3, #32]
 2639 003e 40F24442 		movw	r2, #1092
 2640 0042 1142     		tst	r1, r2
 2641 0044 03D1     		bne	.L360
 2642 0046 5A6C     		ldr	r2, [r3, #68]
 2643 0048 22F40042 		bic	r2, r2, #32768
 2644 004c 5A64     		str	r2, [r3, #68]
 2645              	.L360:
 2646 004e 2368     		ldr	r3, [r4]
 2647 0050 196A     		ldr	r1, [r3, #32]
 2648 0052 41F21112 		movw	r2, #4369
 2649 0056 1142     		tst	r1, r2
 2650 0058 08D1     		bne	.L361
 2651 005a 196A     		ldr	r1, [r3, #32]
 2652 005c 40F24442 		movw	r2, #1092
 2653 0060 1142     		tst	r1, r2
 2654 0062 03D1     		bne	.L361
 2655 0064 1A68     		ldr	r2, [r3]
 2656 0066 22F00102 		bic	r2, r2, #1
 2657 006a 1A60     		str	r2, [r3]
 2658              	.L361:
 2659 006c 0123     		movs	r3, #1
 2660 006e 84F83E30 		strb	r3, [r4, #62]
 2661 0072 84F83F30 		strb	r3, [r4, #63]
 2662 0076 84F84230 		strb	r3, [r4, #66]
 2663 007a 84F84330 		strb	r3, [r4, #67]
 2664 007e 0020     		movs	r0, #0
 2665 0080 38BD     		pop	{r3, r4, r5, pc}
 2666              	.L362:
 2667 0082 0025     		movs	r5, #0
 2668 0084 C1E7     		b	.L359
 2670              		.section	.text.HAL_TIMEx_ConfigCommutEvent,"ax",%progbits
 2671              		.align	1
 2672              		.global	HAL_TIMEx_ConfigCommutEvent
 2673              		.syntax unified
 2674              		.thumb
 2675              		.thumb_func
 2676              		.fpu fpv4-sp-d16
 2678              	HAL_TIMEx_ConfigCommutEvent:
 2679              		@ args = 0, pretend = 0, frame = 0
 2680              		@ frame_needed = 0, uses_anonymous_args = 0
 2681              		@ link register save eliminated.
ARM GAS  /tmp/ccYPPKI6.s 			page 47


 2682 0000 90F83C30 		ldrb	r3, [r0, #60]	@ zero_extendqisi2
 2683 0004 012B     		cmp	r3, #1
 2684 0006 32D0     		beq	.L368
 2685 0008 10B4     		push	{r4}
 2686 000a 0123     		movs	r3, #1
 2687 000c 80F83C30 		strb	r3, [r0, #60]
 2688 0010 29B1     		cbz	r1, .L366
 2689 0012 1029     		cmp	r1, #16
 2690 0014 03D0     		beq	.L366
 2691 0016 2029     		cmp	r1, #32
 2692 0018 01D0     		beq	.L366
 2693 001a 3029     		cmp	r1, #48
 2694 001c 08D1     		bne	.L367
 2695              	.L366:
 2696 001e 0468     		ldr	r4, [r0]
 2697 0020 A368     		ldr	r3, [r4, #8]
 2698 0022 23F07003 		bic	r3, r3, #112
 2699 0026 A360     		str	r3, [r4, #8]
 2700 0028 0468     		ldr	r4, [r0]
 2701 002a A368     		ldr	r3, [r4, #8]
 2702 002c 1943     		orrs	r1, r1, r3
 2703 002e A160     		str	r1, [r4, #8]
 2704              	.L367:
 2705 0030 0168     		ldr	r1, [r0]
 2706 0032 4B68     		ldr	r3, [r1, #4]
 2707 0034 43F00103 		orr	r3, r3, #1
 2708 0038 4B60     		str	r3, [r1, #4]
 2709 003a 0168     		ldr	r1, [r0]
 2710 003c 4B68     		ldr	r3, [r1, #4]
 2711 003e 23F00403 		bic	r3, r3, #4
 2712 0042 4B60     		str	r3, [r1, #4]
 2713 0044 0168     		ldr	r1, [r0]
 2714 0046 4B68     		ldr	r3, [r1, #4]
 2715 0048 1A43     		orrs	r2, r2, r3
 2716 004a 4A60     		str	r2, [r1, #4]
 2717 004c 0268     		ldr	r2, [r0]
 2718 004e D368     		ldr	r3, [r2, #12]
 2719 0050 23F02003 		bic	r3, r3, #32
 2720 0054 D360     		str	r3, [r2, #12]
 2721 0056 0268     		ldr	r2, [r0]
 2722 0058 D368     		ldr	r3, [r2, #12]
 2723 005a 23F40053 		bic	r3, r3, #8192
 2724 005e D360     		str	r3, [r2, #12]
 2725 0060 0023     		movs	r3, #0
 2726 0062 80F83C30 		strb	r3, [r0, #60]
 2727 0066 1846     		mov	r0, r3
 2728 0068 5DF8044B 		ldr	r4, [sp], #4
 2729 006c 7047     		bx	lr
 2730              	.L368:
 2731 006e 0220     		movs	r0, #2
 2732 0070 7047     		bx	lr
 2734              		.section	.text.HAL_TIMEx_ConfigCommutEvent_IT,"ax",%progbits
 2735              		.align	1
 2736              		.global	HAL_TIMEx_ConfigCommutEvent_IT
 2737              		.syntax unified
 2738              		.thumb
 2739              		.thumb_func
ARM GAS  /tmp/ccYPPKI6.s 			page 48


 2740              		.fpu fpv4-sp-d16
 2742              	HAL_TIMEx_ConfigCommutEvent_IT:
 2743              		@ args = 0, pretend = 0, frame = 0
 2744              		@ frame_needed = 0, uses_anonymous_args = 0
 2745              		@ link register save eliminated.
 2746 0000 90F83C30 		ldrb	r3, [r0, #60]	@ zero_extendqisi2
 2747 0004 012B     		cmp	r3, #1
 2748 0006 32D0     		beq	.L377
 2749 0008 10B4     		push	{r4}
 2750 000a 0123     		movs	r3, #1
 2751 000c 80F83C30 		strb	r3, [r0, #60]
 2752 0010 29B1     		cbz	r1, .L375
 2753 0012 1029     		cmp	r1, #16
 2754 0014 03D0     		beq	.L375
 2755 0016 2029     		cmp	r1, #32
 2756 0018 01D0     		beq	.L375
 2757 001a 3029     		cmp	r1, #48
 2758 001c 08D1     		bne	.L376
 2759              	.L375:
 2760 001e 0468     		ldr	r4, [r0]
 2761 0020 A368     		ldr	r3, [r4, #8]
 2762 0022 23F07003 		bic	r3, r3, #112
 2763 0026 A360     		str	r3, [r4, #8]
 2764 0028 0468     		ldr	r4, [r0]
 2765 002a A368     		ldr	r3, [r4, #8]
 2766 002c 1943     		orrs	r1, r1, r3
 2767 002e A160     		str	r1, [r4, #8]
 2768              	.L376:
 2769 0030 0168     		ldr	r1, [r0]
 2770 0032 4B68     		ldr	r3, [r1, #4]
 2771 0034 43F00103 		orr	r3, r3, #1
 2772 0038 4B60     		str	r3, [r1, #4]
 2773 003a 0168     		ldr	r1, [r0]
 2774 003c 4B68     		ldr	r3, [r1, #4]
 2775 003e 23F00403 		bic	r3, r3, #4
 2776 0042 4B60     		str	r3, [r1, #4]
 2777 0044 0168     		ldr	r1, [r0]
 2778 0046 4B68     		ldr	r3, [r1, #4]
 2779 0048 1A43     		orrs	r2, r2, r3
 2780 004a 4A60     		str	r2, [r1, #4]
 2781 004c 0268     		ldr	r2, [r0]
 2782 004e D368     		ldr	r3, [r2, #12]
 2783 0050 23F40053 		bic	r3, r3, #8192
 2784 0054 D360     		str	r3, [r2, #12]
 2785 0056 0268     		ldr	r2, [r0]
 2786 0058 D368     		ldr	r3, [r2, #12]
 2787 005a 43F02003 		orr	r3, r3, #32
 2788 005e D360     		str	r3, [r2, #12]
 2789 0060 0023     		movs	r3, #0
 2790 0062 80F83C30 		strb	r3, [r0, #60]
 2791 0066 1846     		mov	r0, r3
 2792 0068 5DF8044B 		ldr	r4, [sp], #4
 2793 006c 7047     		bx	lr
 2794              	.L377:
 2795 006e 0220     		movs	r0, #2
 2796 0070 7047     		bx	lr
 2798              		.section	.text.HAL_TIMEx_ConfigCommutEvent_DMA,"ax",%progbits
ARM GAS  /tmp/ccYPPKI6.s 			page 49


 2799              		.align	1
 2800              		.global	HAL_TIMEx_ConfigCommutEvent_DMA
 2801              		.syntax unified
 2802              		.thumb
 2803              		.thumb_func
 2804              		.fpu fpv4-sp-d16
 2806              	HAL_TIMEx_ConfigCommutEvent_DMA:
 2807              		@ args = 0, pretend = 0, frame = 0
 2808              		@ frame_needed = 0, uses_anonymous_args = 0
 2809              		@ link register save eliminated.
 2810 0000 90F83C30 		ldrb	r3, [r0, #60]	@ zero_extendqisi2
 2811 0004 012B     		cmp	r3, #1
 2812 0006 3BD0     		beq	.L386
 2813 0008 10B4     		push	{r4}
 2814 000a 0123     		movs	r3, #1
 2815 000c 80F83C30 		strb	r3, [r0, #60]
 2816 0010 29B1     		cbz	r1, .L384
 2817 0012 1029     		cmp	r1, #16
 2818 0014 03D0     		beq	.L384
 2819 0016 2029     		cmp	r1, #32
 2820 0018 01D0     		beq	.L384
 2821 001a 3029     		cmp	r1, #48
 2822 001c 08D1     		bne	.L385
 2823              	.L384:
 2824 001e 0468     		ldr	r4, [r0]
 2825 0020 A368     		ldr	r3, [r4, #8]
 2826 0022 23F07003 		bic	r3, r3, #112
 2827 0026 A360     		str	r3, [r4, #8]
 2828 0028 0468     		ldr	r4, [r0]
 2829 002a A368     		ldr	r3, [r4, #8]
 2830 002c 1943     		orrs	r1, r1, r3
 2831 002e A160     		str	r1, [r4, #8]
 2832              	.L385:
 2833 0030 0168     		ldr	r1, [r0]
 2834 0032 4B68     		ldr	r3, [r1, #4]
 2835 0034 43F00103 		orr	r3, r3, #1
 2836 0038 4B60     		str	r3, [r1, #4]
 2837 003a 0168     		ldr	r1, [r0]
 2838 003c 4B68     		ldr	r3, [r1, #4]
 2839 003e 23F00403 		bic	r3, r3, #4
 2840 0042 4B60     		str	r3, [r1, #4]
 2841 0044 0168     		ldr	r1, [r0]
 2842 0046 4B68     		ldr	r3, [r1, #4]
 2843 0048 1A43     		orrs	r2, r2, r3
 2844 004a 4A60     		str	r2, [r1, #4]
 2845 004c 436B     		ldr	r3, [r0, #52]
 2846 004e 0D4A     		ldr	r2, .L391
 2847 0050 DA63     		str	r2, [r3, #60]
 2848 0052 436B     		ldr	r3, [r0, #52]
 2849 0054 0C4A     		ldr	r2, .L391+4
 2850 0056 1A64     		str	r2, [r3, #64]
 2851 0058 436B     		ldr	r3, [r0, #52]
 2852 005a 0C4A     		ldr	r2, .L391+8
 2853 005c DA64     		str	r2, [r3, #76]
 2854 005e 0268     		ldr	r2, [r0]
 2855 0060 D368     		ldr	r3, [r2, #12]
 2856 0062 23F02003 		bic	r3, r3, #32
ARM GAS  /tmp/ccYPPKI6.s 			page 50


 2857 0066 D360     		str	r3, [r2, #12]
 2858 0068 0268     		ldr	r2, [r0]
 2859 006a D368     		ldr	r3, [r2, #12]
 2860 006c 43F40053 		orr	r3, r3, #8192
 2861 0070 D360     		str	r3, [r2, #12]
 2862 0072 0023     		movs	r3, #0
 2863 0074 80F83C30 		strb	r3, [r0, #60]
 2864 0078 1846     		mov	r0, r3
 2865 007a 5DF8044B 		ldr	r4, [sp], #4
 2866 007e 7047     		bx	lr
 2867              	.L386:
 2868 0080 0220     		movs	r0, #2
 2869 0082 7047     		bx	lr
 2870              	.L392:
 2871              		.align	2
 2872              	.L391:
 2873 0084 00000000 		.word	TIMEx_DMACommutationCplt
 2874 0088 00000000 		.word	TIMEx_DMACommutationHalfCplt
 2875 008c 00000000 		.word	TIM_DMAError
 2877              		.section	.text.HAL_TIMEx_MasterConfigSynchronization,"ax",%progbits
 2878              		.align	1
 2879              		.global	HAL_TIMEx_MasterConfigSynchronization
 2880              		.syntax unified
 2881              		.thumb
 2882              		.thumb_func
 2883              		.fpu fpv4-sp-d16
 2885              	HAL_TIMEx_MasterConfigSynchronization:
 2886              		@ args = 0, pretend = 0, frame = 0
 2887              		@ frame_needed = 0, uses_anonymous_args = 0
 2888              		@ link register save eliminated.
 2889 0000 90F83C30 		ldrb	r3, [r0, #60]	@ zero_extendqisi2
 2890 0004 012B     		cmp	r3, #1
 2891 0006 3DD0     		beq	.L397
 2892 0008 10B4     		push	{r4}
 2893 000a 0123     		movs	r3, #1
 2894 000c 80F83C30 		strb	r3, [r0, #60]
 2895 0010 0223     		movs	r3, #2
 2896 0012 80F83D30 		strb	r3, [r0, #61]
 2897 0016 0368     		ldr	r3, [r0]
 2898 0018 5A68     		ldr	r2, [r3, #4]
 2899 001a 9C68     		ldr	r4, [r3, #8]
 2900 001c 22F0700C 		bic	ip, r2, #112
 2901 0020 0A68     		ldr	r2, [r1]
 2902 0022 42EA0C02 		orr	r2, r2, ip
 2903 0026 5A60     		str	r2, [r3, #4]
 2904 0028 0368     		ldr	r3, [r0]
 2905 002a 174A     		ldr	r2, .L402
 2906 002c 9342     		cmp	r3, r2
 2907 002e 1AD0     		beq	.L395
 2908 0030 B3F1804F 		cmp	r3, #1073741824
 2909 0034 17D0     		beq	.L395
 2910 0036 A2F57C42 		sub	r2, r2, #64512
 2911 003a 9342     		cmp	r3, r2
 2912 003c 13D0     		beq	.L395
 2913 003e 02F58062 		add	r2, r2, #1024
 2914 0042 9342     		cmp	r3, r2
 2915 0044 0FD0     		beq	.L395
ARM GAS  /tmp/ccYPPKI6.s 			page 51


 2916 0046 02F58062 		add	r2, r2, #1024
 2917 004a 9342     		cmp	r3, r2
 2918 004c 0BD0     		beq	.L395
 2919 004e 02F57842 		add	r2, r2, #63488
 2920 0052 9342     		cmp	r3, r2
 2921 0054 07D0     		beq	.L395
 2922 0056 02F57052 		add	r2, r2, #15360
 2923 005a 9342     		cmp	r3, r2
 2924 005c 03D0     		beq	.L395
 2925 005e A2F59432 		sub	r2, r2, #75776
 2926 0062 9342     		cmp	r3, r2
 2927 0064 04D1     		bne	.L396
 2928              	.L395:
 2929 0066 24F08004 		bic	r4, r4, #128
 2930 006a 4A68     		ldr	r2, [r1, #4]
 2931 006c 1443     		orrs	r4, r4, r2
 2932 006e 9C60     		str	r4, [r3, #8]
 2933              	.L396:
 2934 0070 0123     		movs	r3, #1
 2935 0072 80F83D30 		strb	r3, [r0, #61]
 2936 0076 0023     		movs	r3, #0
 2937 0078 80F83C30 		strb	r3, [r0, #60]
 2938 007c 1846     		mov	r0, r3
 2939 007e 5DF8044B 		ldr	r4, [sp], #4
 2940 0082 7047     		bx	lr
 2941              	.L397:
 2942 0084 0220     		movs	r0, #2
 2943 0086 7047     		bx	lr
 2944              	.L403:
 2945              		.align	2
 2946              	.L402:
 2947 0088 00000140 		.word	1073807360
 2949              		.section	.text.HAL_TIMEx_ConfigBreakDeadTime,"ax",%progbits
 2950              		.align	1
 2951              		.global	HAL_TIMEx_ConfigBreakDeadTime
 2952              		.syntax unified
 2953              		.thumb
 2954              		.thumb_func
 2955              		.fpu fpv4-sp-d16
 2957              	HAL_TIMEx_ConfigBreakDeadTime:
 2958              		@ args = 0, pretend = 0, frame = 0
 2959              		@ frame_needed = 0, uses_anonymous_args = 0
 2960              		@ link register save eliminated.
 2961 0000 90F83C30 		ldrb	r3, [r0, #60]	@ zero_extendqisi2
 2962 0004 012B     		cmp	r3, #1
 2963 0006 22D0     		beq	.L406
 2964 0008 0123     		movs	r3, #1
 2965 000a 80F83C30 		strb	r3, [r0, #60]
 2966 000e CB68     		ldr	r3, [r1, #12]
 2967 0010 23F44073 		bic	r3, r3, #768
 2968 0014 8A68     		ldr	r2, [r1, #8]
 2969 0016 1343     		orrs	r3, r3, r2
 2970 0018 23F48063 		bic	r3, r3, #1024
 2971 001c 4A68     		ldr	r2, [r1, #4]
 2972 001e 1343     		orrs	r3, r3, r2
 2973 0020 23F40063 		bic	r3, r3, #2048
 2974 0024 0A68     		ldr	r2, [r1]
ARM GAS  /tmp/ccYPPKI6.s 			page 52


 2975 0026 1343     		orrs	r3, r3, r2
 2976 0028 23F48053 		bic	r3, r3, #4096
 2977 002c 0A69     		ldr	r2, [r1, #16]
 2978 002e 1343     		orrs	r3, r3, r2
 2979 0030 23F40053 		bic	r3, r3, #8192
 2980 0034 4A69     		ldr	r2, [r1, #20]
 2981 0036 1343     		orrs	r3, r3, r2
 2982 0038 23F48043 		bic	r3, r3, #16384
 2983 003c CA69     		ldr	r2, [r1, #28]
 2984 003e 1343     		orrs	r3, r3, r2
 2985 0040 0268     		ldr	r2, [r0]
 2986 0042 5364     		str	r3, [r2, #68]
 2987 0044 0023     		movs	r3, #0
 2988 0046 80F83C30 		strb	r3, [r0, #60]
 2989 004a 1846     		mov	r0, r3
 2990 004c 7047     		bx	lr
 2991              	.L406:
 2992 004e 0220     		movs	r0, #2
 2993 0050 7047     		bx	lr
 2995              		.section	.text.HAL_TIMEx_RemapConfig,"ax",%progbits
 2996              		.align	1
 2997              		.global	HAL_TIMEx_RemapConfig
 2998              		.syntax unified
 2999              		.thumb
 3000              		.thumb_func
 3001              		.fpu fpv4-sp-d16
 3003              	HAL_TIMEx_RemapConfig:
 3004              		@ args = 0, pretend = 0, frame = 0
 3005              		@ frame_needed = 0, uses_anonymous_args = 0
 3006              		@ link register save eliminated.
 3007 0000 90F83C30 		ldrb	r3, [r0, #60]	@ zero_extendqisi2
 3008 0004 012B     		cmp	r3, #1
 3009 0006 09D0     		beq	.L409
 3010 0008 0123     		movs	r3, #1
 3011 000a 80F83C30 		strb	r3, [r0, #60]
 3012 000e 0368     		ldr	r3, [r0]
 3013 0010 1965     		str	r1, [r3, #80]
 3014 0012 0023     		movs	r3, #0
 3015 0014 80F83C30 		strb	r3, [r0, #60]
 3016 0018 1846     		mov	r0, r3
 3017 001a 7047     		bx	lr
 3018              	.L409:
 3019 001c 0220     		movs	r0, #2
 3020 001e 7047     		bx	lr
 3022              		.section	.text.HAL_TIMEx_CommutCallback,"ax",%progbits
 3023              		.align	1
 3024              		.weak	HAL_TIMEx_CommutCallback
 3025              		.syntax unified
 3026              		.thumb
 3027              		.thumb_func
 3028              		.fpu fpv4-sp-d16
 3030              	HAL_TIMEx_CommutCallback:
 3031              		@ args = 0, pretend = 0, frame = 0
 3032              		@ frame_needed = 0, uses_anonymous_args = 0
 3033              		@ link register save eliminated.
 3034 0000 7047     		bx	lr
 3036              		.section	.text.TIMEx_DMACommutationCplt,"ax",%progbits
ARM GAS  /tmp/ccYPPKI6.s 			page 53


 3037              		.align	1
 3038              		.global	TIMEx_DMACommutationCplt
 3039              		.syntax unified
 3040              		.thumb
 3041              		.thumb_func
 3042              		.fpu fpv4-sp-d16
 3044              	TIMEx_DMACommutationCplt:
 3045              		@ args = 0, pretend = 0, frame = 0
 3046              		@ frame_needed = 0, uses_anonymous_args = 0
 3047 0000 08B5     		push	{r3, lr}
 3048 0002 806B     		ldr	r0, [r0, #56]
 3049 0004 0123     		movs	r3, #1
 3050 0006 80F83D30 		strb	r3, [r0, #61]
 3051 000a FFF7FEFF 		bl	HAL_TIMEx_CommutCallback
 3052 000e 08BD     		pop	{r3, pc}
 3054              		.section	.text.HAL_TIMEx_CommutHalfCpltCallback,"ax",%progbits
 3055              		.align	1
 3056              		.weak	HAL_TIMEx_CommutHalfCpltCallback
 3057              		.syntax unified
 3058              		.thumb
 3059              		.thumb_func
 3060              		.fpu fpv4-sp-d16
 3062              	HAL_TIMEx_CommutHalfCpltCallback:
 3063              		@ args = 0, pretend = 0, frame = 0
 3064              		@ frame_needed = 0, uses_anonymous_args = 0
 3065              		@ link register save eliminated.
 3066 0000 7047     		bx	lr
 3068              		.section	.text.TIMEx_DMACommutationHalfCplt,"ax",%progbits
 3069              		.align	1
 3070              		.global	TIMEx_DMACommutationHalfCplt
 3071              		.syntax unified
 3072              		.thumb
 3073              		.thumb_func
 3074              		.fpu fpv4-sp-d16
 3076              	TIMEx_DMACommutationHalfCplt:
 3077              		@ args = 0, pretend = 0, frame = 0
 3078              		@ frame_needed = 0, uses_anonymous_args = 0
 3079 0000 08B5     		push	{r3, lr}
 3080 0002 806B     		ldr	r0, [r0, #56]
 3081 0004 0123     		movs	r3, #1
 3082 0006 80F83D30 		strb	r3, [r0, #61]
 3083 000a FFF7FEFF 		bl	HAL_TIMEx_CommutHalfCpltCallback
 3084 000e 08BD     		pop	{r3, pc}
 3086              		.section	.text.HAL_TIMEx_BreakCallback,"ax",%progbits
 3087              		.align	1
 3088              		.weak	HAL_TIMEx_BreakCallback
 3089              		.syntax unified
 3090              		.thumb
 3091              		.thumb_func
 3092              		.fpu fpv4-sp-d16
 3094              	HAL_TIMEx_BreakCallback:
 3095              		@ args = 0, pretend = 0, frame = 0
 3096              		@ frame_needed = 0, uses_anonymous_args = 0
 3097              		@ link register save eliminated.
 3098 0000 7047     		bx	lr
 3100              		.section	.text.HAL_TIMEx_HallSensor_GetState,"ax",%progbits
 3101              		.align	1
ARM GAS  /tmp/ccYPPKI6.s 			page 54


 3102              		.global	HAL_TIMEx_HallSensor_GetState
 3103              		.syntax unified
 3104              		.thumb
 3105              		.thumb_func
 3106              		.fpu fpv4-sp-d16
 3108              	HAL_TIMEx_HallSensor_GetState:
 3109              		@ args = 0, pretend = 0, frame = 0
 3110              		@ frame_needed = 0, uses_anonymous_args = 0
 3111              		@ link register save eliminated.
 3112 0000 90F83D00 		ldrb	r0, [r0, #61]	@ zero_extendqisi2
 3113 0004 7047     		bx	lr
 3115              		.section	.text.HAL_TIMEx_GetChannelNState,"ax",%progbits
 3116              		.align	1
 3117              		.global	HAL_TIMEx_GetChannelNState
 3118              		.syntax unified
 3119              		.thumb
 3120              		.thumb_func
 3121              		.fpu fpv4-sp-d16
 3123              	HAL_TIMEx_GetChannelNState:
 3124              		@ args = 0, pretend = 0, frame = 0
 3125              		@ frame_needed = 0, uses_anonymous_args = 0
 3126              		@ link register save eliminated.
 3127 0000 19B9     		cbnz	r1, .L419
 3128 0002 90F84200 		ldrb	r0, [r0, #66]	@ zero_extendqisi2
 3129 0006 C0B2     		uxtb	r0, r0
 3130 0008 7047     		bx	lr
 3131              	.L419:
 3132 000a 0429     		cmp	r1, #4
 3133 000c 05D0     		beq	.L423
 3134 000e 0829     		cmp	r1, #8
 3135 0010 07D0     		beq	.L424
 3136 0012 90F84500 		ldrb	r0, [r0, #69]	@ zero_extendqisi2
 3137 0016 C0B2     		uxtb	r0, r0
 3138 0018 7047     		bx	lr
 3139              	.L423:
 3140 001a 90F84300 		ldrb	r0, [r0, #67]	@ zero_extendqisi2
 3141 001e C0B2     		uxtb	r0, r0
 3142 0020 7047     		bx	lr
 3143              	.L424:
 3144 0022 90F84400 		ldrb	r0, [r0, #68]	@ zero_extendqisi2
 3145 0026 C0B2     		uxtb	r0, r0
 3146 0028 7047     		bx	lr
 3148              		.ident	"GCC: (GNU Arm Embedded Toolchain 10.3-2021.07) 10.3.1 20210621 (release)"
ARM GAS  /tmp/ccYPPKI6.s 			page 55

