ARM GAS  /tmp/cc01cbqV.s 			page 1


   1              		.cpu cortex-m4
   2              		.eabi_attribute 27, 1
   3              		.eabi_attribute 28, 1
   4              		.eabi_attribute 20, 1
   5              		.eabi_attribute 21, 1
   6              		.eabi_attribute 23, 3
   7              		.eabi_attribute 24, 1
   8              		.eabi_attribute 25, 1
   9              		.eabi_attribute 26, 1
  10              		.eabi_attribute 30, 1
  11              		.eabi_attribute 34, 1
  12              		.eabi_attribute 18, 4
  13              		.file	"stm32f4xx_hal_tim.c"
  14              		.text
  15              		.section	.text.TIM_OC1_SetConfig,"ax",%progbits
  16              		.align	1
  17              		.arch armv7e-m
  18              		.syntax unified
  19              		.thumb
  20              		.thumb_func
  21              		.fpu fpv4-sp-d16
  23              	TIM_OC1_SetConfig:
  24              		@ args = 0, pretend = 0, frame = 0
  25              		@ frame_needed = 0, uses_anonymous_args = 0
  26              		@ link register save eliminated.
  27 0000 30B4     		push	{r4, r5}
  28 0002 036A     		ldr	r3, [r0, #32]
  29 0004 23F00103 		bic	r3, r3, #1
  30 0008 0362     		str	r3, [r0, #32]
  31 000a 036A     		ldr	r3, [r0, #32]
  32 000c 4268     		ldr	r2, [r0, #4]
  33 000e 8469     		ldr	r4, [r0, #24]
  34 0010 24F07304 		bic	r4, r4, #115
  35 0014 0D68     		ldr	r5, [r1]
  36 0016 2C43     		orrs	r4, r4, r5
  37 0018 23F0020C 		bic	ip, r3, #2
  38 001c 8B68     		ldr	r3, [r1, #8]
  39 001e 43EA0C03 		orr	r3, r3, ip
  40 0022 104D     		ldr	r5, .L7
  41 0024 A842     		cmp	r0, r5
  42 0026 03D0     		beq	.L2
  43 0028 05F58065 		add	r5, r5, #1024
  44 002c A842     		cmp	r0, r5
  45 002e 05D1     		bne	.L3
  46              	.L2:
  47 0030 23F00803 		bic	r3, r3, #8
  48 0034 CD68     		ldr	r5, [r1, #12]
  49 0036 2B43     		orrs	r3, r3, r5
  50 0038 23F00403 		bic	r3, r3, #4
  51              	.L3:
  52 003c 094D     		ldr	r5, .L7
  53 003e A842     		cmp	r0, r5
  54 0040 03D0     		beq	.L4
  55 0042 05F58065 		add	r5, r5, #1024
  56 0046 A842     		cmp	r0, r5
  57 0048 05D1     		bne	.L5
  58              	.L4:
ARM GAS  /tmp/cc01cbqV.s 			page 2


  59 004a 22F44072 		bic	r2, r2, #768
  60 004e 4D69     		ldr	r5, [r1, #20]
  61 0050 2A43     		orrs	r2, r2, r5
  62 0052 8D69     		ldr	r5, [r1, #24]
  63 0054 2A43     		orrs	r2, r2, r5
  64              	.L5:
  65 0056 4260     		str	r2, [r0, #4]
  66 0058 8461     		str	r4, [r0, #24]
  67 005a 4A68     		ldr	r2, [r1, #4]
  68 005c 4263     		str	r2, [r0, #52]
  69 005e 0362     		str	r3, [r0, #32]
  70 0060 30BC     		pop	{r4, r5}
  71 0062 7047     		bx	lr
  72              	.L8:
  73              		.align	2
  74              	.L7:
  75 0064 00000140 		.word	1073807360
  77              		.section	.text.TIM_OC3_SetConfig,"ax",%progbits
  78              		.align	1
  79              		.syntax unified
  80              		.thumb
  81              		.thumb_func
  82              		.fpu fpv4-sp-d16
  84              	TIM_OC3_SetConfig:
  85              		@ args = 0, pretend = 0, frame = 0
  86              		@ frame_needed = 0, uses_anonymous_args = 0
  87              		@ link register save eliminated.
  88 0000 30B4     		push	{r4, r5}
  89 0002 036A     		ldr	r3, [r0, #32]
  90 0004 23F48073 		bic	r3, r3, #256
  91 0008 0362     		str	r3, [r0, #32]
  92 000a 036A     		ldr	r3, [r0, #32]
  93 000c 4268     		ldr	r2, [r0, #4]
  94 000e C469     		ldr	r4, [r0, #28]
  95 0010 24F0730C 		bic	ip, r4, #115
  96 0014 0C68     		ldr	r4, [r1]
  97 0016 44EA0C05 		orr	r5, r4, ip
  98 001a 23F40073 		bic	r3, r3, #512
  99 001e 8C68     		ldr	r4, [r1, #8]
 100 0020 43EA0423 		orr	r3, r3, r4, lsl #8
 101 0024 114C     		ldr	r4, .L15
 102 0026 A042     		cmp	r0, r4
 103 0028 03D0     		beq	.L10
 104 002a 04F58064 		add	r4, r4, #1024
 105 002e A042     		cmp	r0, r4
 106 0030 06D1     		bne	.L11
 107              	.L10:
 108 0032 23F40063 		bic	r3, r3, #2048
 109 0036 CC68     		ldr	r4, [r1, #12]
 110 0038 43EA0423 		orr	r3, r3, r4, lsl #8
 111 003c 23F48063 		bic	r3, r3, #1024
 112              	.L11:
 113 0040 0A4C     		ldr	r4, .L15
 114 0042 A042     		cmp	r0, r4
 115 0044 03D0     		beq	.L12
 116 0046 04F58064 		add	r4, r4, #1024
 117 004a A042     		cmp	r0, r4
ARM GAS  /tmp/cc01cbqV.s 			page 3


 118 004c 07D1     		bne	.L13
 119              	.L12:
 120 004e 22F44052 		bic	r2, r2, #12288
 121 0052 4C69     		ldr	r4, [r1, #20]
 122 0054 42EA0412 		orr	r2, r2, r4, lsl #4
 123 0058 8C69     		ldr	r4, [r1, #24]
 124 005a 42EA0412 		orr	r2, r2, r4, lsl #4
 125              	.L13:
 126 005e 4260     		str	r2, [r0, #4]
 127 0060 C561     		str	r5, [r0, #28]
 128 0062 4A68     		ldr	r2, [r1, #4]
 129 0064 C263     		str	r2, [r0, #60]
 130 0066 0362     		str	r3, [r0, #32]
 131 0068 30BC     		pop	{r4, r5}
 132 006a 7047     		bx	lr
 133              	.L16:
 134              		.align	2
 135              	.L15:
 136 006c 00000140 		.word	1073807360
 138              		.section	.text.TIM_OC4_SetConfig,"ax",%progbits
 139              		.align	1
 140              		.syntax unified
 141              		.thumb
 142              		.thumb_func
 143              		.fpu fpv4-sp-d16
 145              	TIM_OC4_SetConfig:
 146              		@ args = 0, pretend = 0, frame = 0
 147              		@ frame_needed = 0, uses_anonymous_args = 0
 148              		@ link register save eliminated.
 149 0000 30B4     		push	{r4, r5}
 150 0002 036A     		ldr	r3, [r0, #32]
 151 0004 23F48053 		bic	r3, r3, #4096
 152 0008 0362     		str	r3, [r0, #32]
 153 000a 036A     		ldr	r3, [r0, #32]
 154 000c 4468     		ldr	r4, [r0, #4]
 155 000e C269     		ldr	r2, [r0, #28]
 156 0010 22F4E642 		bic	r2, r2, #29440
 157 0014 0D68     		ldr	r5, [r1]
 158 0016 42EA0522 		orr	r2, r2, r5, lsl #8
 159 001a 23F40053 		bic	r3, r3, #8192
 160 001e 8D68     		ldr	r5, [r1, #8]
 161 0020 43EA0533 		orr	r3, r3, r5, lsl #12
 162 0024 094D     		ldr	r5, .L21
 163 0026 A842     		cmp	r0, r5
 164 0028 03D0     		beq	.L18
 165 002a 05F58065 		add	r5, r5, #1024
 166 002e A842     		cmp	r0, r5
 167 0030 04D1     		bne	.L19
 168              	.L18:
 169 0032 24F48044 		bic	r4, r4, #16384
 170 0036 4D69     		ldr	r5, [r1, #20]
 171 0038 44EA8514 		orr	r4, r4, r5, lsl #6
 172              	.L19:
 173 003c 4460     		str	r4, [r0, #4]
 174 003e C261     		str	r2, [r0, #28]
 175 0040 4A68     		ldr	r2, [r1, #4]
 176 0042 0264     		str	r2, [r0, #64]
ARM GAS  /tmp/cc01cbqV.s 			page 4


 177 0044 0362     		str	r3, [r0, #32]
 178 0046 30BC     		pop	{r4, r5}
 179 0048 7047     		bx	lr
 180              	.L22:
 181 004a 00BF     		.align	2
 182              	.L21:
 183 004c 00000140 		.word	1073807360
 185              		.section	.text.TIM_TI1_ConfigInputStage,"ax",%progbits
 186              		.align	1
 187              		.syntax unified
 188              		.thumb
 189              		.thumb_func
 190              		.fpu fpv4-sp-d16
 192              	TIM_TI1_ConfigInputStage:
 193              		@ args = 0, pretend = 0, frame = 0
 194              		@ frame_needed = 0, uses_anonymous_args = 0
 195              		@ link register save eliminated.
 196 0000 10B4     		push	{r4}
 197 0002 036A     		ldr	r3, [r0, #32]
 198 0004 046A     		ldr	r4, [r0, #32]
 199 0006 24F00104 		bic	r4, r4, #1
 200 000a 0462     		str	r4, [r0, #32]
 201 000c 8469     		ldr	r4, [r0, #24]
 202 000e 24F0F00C 		bic	ip, r4, #240
 203 0012 4CEA0212 		orr	r2, ip, r2, lsl #4
 204 0016 23F00A03 		bic	r3, r3, #10
 205 001a 0B43     		orrs	r3, r3, r1
 206 001c 8261     		str	r2, [r0, #24]
 207 001e 0362     		str	r3, [r0, #32]
 208 0020 5DF8044B 		ldr	r4, [sp], #4
 209 0024 7047     		bx	lr
 211              		.section	.text.TIM_TI2_SetConfig,"ax",%progbits
 212              		.align	1
 213              		.syntax unified
 214              		.thumb
 215              		.thumb_func
 216              		.fpu fpv4-sp-d16
 218              	TIM_TI2_SetConfig:
 219              		@ args = 0, pretend = 0, frame = 0
 220              		@ frame_needed = 0, uses_anonymous_args = 0
 221              		@ link register save eliminated.
 222 0000 30B4     		push	{r4, r5}
 223 0002 046A     		ldr	r4, [r0, #32]
 224 0004 24F01004 		bic	r4, r4, #16
 225 0008 0462     		str	r4, [r0, #32]
 226 000a 8469     		ldr	r4, [r0, #24]
 227 000c 056A     		ldr	r5, [r0, #32]
 228 000e 24F4407C 		bic	ip, r4, #768
 229 0012 4CEA022C 		orr	ip, ip, r2, lsl #8
 230 0016 2CF4704C 		bic	ip, ip, #61440
 231 001a 1B03     		lsls	r3, r3, #12
 232 001c 9BB2     		uxth	r3, r3
 233 001e 43EA0C03 		orr	r3, r3, ip
 234 0022 25F0A005 		bic	r5, r5, #160
 235 0026 0901     		lsls	r1, r1, #4
 236 0028 01F0A001 		and	r1, r1, #160
 237 002c 2943     		orrs	r1, r1, r5
ARM GAS  /tmp/cc01cbqV.s 			page 5


 238 002e 8361     		str	r3, [r0, #24]
 239 0030 0162     		str	r1, [r0, #32]
 240 0032 30BC     		pop	{r4, r5}
 241 0034 7047     		bx	lr
 243              		.section	.text.TIM_TI2_ConfigInputStage,"ax",%progbits
 244              		.align	1
 245              		.syntax unified
 246              		.thumb
 247              		.thumb_func
 248              		.fpu fpv4-sp-d16
 250              	TIM_TI2_ConfigInputStage:
 251              		@ args = 0, pretend = 0, frame = 0
 252              		@ frame_needed = 0, uses_anonymous_args = 0
 253              		@ link register save eliminated.
 254 0000 10B4     		push	{r4}
 255 0002 046A     		ldr	r4, [r0, #32]
 256 0004 24F01004 		bic	r4, r4, #16
 257 0008 0462     		str	r4, [r0, #32]
 258 000a 8469     		ldr	r4, [r0, #24]
 259 000c 036A     		ldr	r3, [r0, #32]
 260 000e 24F4704C 		bic	ip, r4, #61440
 261 0012 4CEA0232 		orr	r2, ip, r2, lsl #12
 262 0016 23F0A003 		bic	r3, r3, #160
 263 001a 43EA0113 		orr	r3, r3, r1, lsl #4
 264 001e 8261     		str	r2, [r0, #24]
 265 0020 0362     		str	r3, [r0, #32]
 266 0022 5DF8044B 		ldr	r4, [sp], #4
 267 0026 7047     		bx	lr
 269              		.section	.text.TIM_TI3_SetConfig,"ax",%progbits
 270              		.align	1
 271              		.syntax unified
 272              		.thumb
 273              		.thumb_func
 274              		.fpu fpv4-sp-d16
 276              	TIM_TI3_SetConfig:
 277              		@ args = 0, pretend = 0, frame = 0
 278              		@ frame_needed = 0, uses_anonymous_args = 0
 279              		@ link register save eliminated.
 280 0000 30B4     		push	{r4, r5}
 281 0002 046A     		ldr	r4, [r0, #32]
 282 0004 24F48074 		bic	r4, r4, #256
 283 0008 0462     		str	r4, [r0, #32]
 284 000a C469     		ldr	r4, [r0, #28]
 285 000c 056A     		ldr	r5, [r0, #32]
 286 000e 24F0030C 		bic	ip, r4, #3
 287 0012 4CEA020C 		orr	ip, ip, r2
 288 0016 2CF0F00C 		bic	ip, ip, #240
 289 001a 1B01     		lsls	r3, r3, #4
 290 001c DBB2     		uxtb	r3, r3
 291 001e 43EA0C03 		orr	r3, r3, ip
 292 0022 25F42065 		bic	r5, r5, #2560
 293 0026 0902     		lsls	r1, r1, #8
 294 0028 01F42061 		and	r1, r1, #2560
 295 002c 2943     		orrs	r1, r1, r5
 296 002e C361     		str	r3, [r0, #28]
 297 0030 0162     		str	r1, [r0, #32]
 298 0032 30BC     		pop	{r4, r5}
ARM GAS  /tmp/cc01cbqV.s 			page 6


 299 0034 7047     		bx	lr
 301              		.section	.text.TIM_TI4_SetConfig,"ax",%progbits
 302              		.align	1
 303              		.syntax unified
 304              		.thumb
 305              		.thumb_func
 306              		.fpu fpv4-sp-d16
 308              	TIM_TI4_SetConfig:
 309              		@ args = 0, pretend = 0, frame = 0
 310              		@ frame_needed = 0, uses_anonymous_args = 0
 311              		@ link register save eliminated.
 312 0000 30B4     		push	{r4, r5}
 313 0002 046A     		ldr	r4, [r0, #32]
 314 0004 24F48054 		bic	r4, r4, #4096
 315 0008 0462     		str	r4, [r0, #32]
 316 000a C469     		ldr	r4, [r0, #28]
 317 000c 056A     		ldr	r5, [r0, #32]
 318 000e 24F4407C 		bic	ip, r4, #768
 319 0012 4CEA022C 		orr	ip, ip, r2, lsl #8
 320 0016 2CF4704C 		bic	ip, ip, #61440
 321 001a 1B03     		lsls	r3, r3, #12
 322 001c 9BB2     		uxth	r3, r3
 323 001e 43EA0C03 		orr	r3, r3, ip
 324 0022 25F42045 		bic	r5, r5, #40960
 325 0026 0903     		lsls	r1, r1, #12
 326 0028 01F42041 		and	r1, r1, #40960
 327 002c 2943     		orrs	r1, r1, r5
 328 002e C361     		str	r3, [r0, #28]
 329 0030 0162     		str	r1, [r0, #32]
 330 0032 30BC     		pop	{r4, r5}
 331 0034 7047     		bx	lr
 333              		.section	.text.TIM_ITRx_SetConfig,"ax",%progbits
 334              		.align	1
 335              		.syntax unified
 336              		.thumb
 337              		.thumb_func
 338              		.fpu fpv4-sp-d16
 340              	TIM_ITRx_SetConfig:
 341              		@ args = 0, pretend = 0, frame = 0
 342              		@ frame_needed = 0, uses_anonymous_args = 0
 343              		@ link register save eliminated.
 344 0000 8368     		ldr	r3, [r0, #8]
 345 0002 23F07003 		bic	r3, r3, #112
 346 0006 0B43     		orrs	r3, r3, r1
 347 0008 43F00703 		orr	r3, r3, #7
 348 000c 8360     		str	r3, [r0, #8]
 349 000e 7047     		bx	lr
 351              		.section	.text.HAL_TIM_Base_MspInit,"ax",%progbits
 352              		.align	1
 353              		.weak	HAL_TIM_Base_MspInit
 354              		.syntax unified
 355              		.thumb
 356              		.thumb_func
 357              		.fpu fpv4-sp-d16
 359              	HAL_TIM_Base_MspInit:
 360              		@ args = 0, pretend = 0, frame = 0
 361              		@ frame_needed = 0, uses_anonymous_args = 0
ARM GAS  /tmp/cc01cbqV.s 			page 7


 362              		@ link register save eliminated.
 363 0000 7047     		bx	lr
 365              		.section	.text.HAL_TIM_Base_MspDeInit,"ax",%progbits
 366              		.align	1
 367              		.weak	HAL_TIM_Base_MspDeInit
 368              		.syntax unified
 369              		.thumb
 370              		.thumb_func
 371              		.fpu fpv4-sp-d16
 373              	HAL_TIM_Base_MspDeInit:
 374              		@ args = 0, pretend = 0, frame = 0
 375              		@ frame_needed = 0, uses_anonymous_args = 0
 376              		@ link register save eliminated.
 377 0000 7047     		bx	lr
 379              		.section	.text.HAL_TIM_Base_DeInit,"ax",%progbits
 380              		.align	1
 381              		.global	HAL_TIM_Base_DeInit
 382              		.syntax unified
 383              		.thumb
 384              		.thumb_func
 385              		.fpu fpv4-sp-d16
 387              	HAL_TIM_Base_DeInit:
 388              		@ args = 0, pretend = 0, frame = 0
 389              		@ frame_needed = 0, uses_anonymous_args = 0
 390 0000 10B5     		push	{r4, lr}
 391 0002 0446     		mov	r4, r0
 392 0004 0223     		movs	r3, #2
 393 0006 80F83D30 		strb	r3, [r0, #61]
 394 000a 0368     		ldr	r3, [r0]
 395 000c 196A     		ldr	r1, [r3, #32]
 396 000e 41F21112 		movw	r2, #4369
 397 0012 1142     		tst	r1, r2
 398 0014 08D1     		bne	.L37
 399 0016 196A     		ldr	r1, [r3, #32]
 400 0018 40F24442 		movw	r2, #1092
 401 001c 1142     		tst	r1, r2
 402 001e 03D1     		bne	.L37
 403 0020 1A68     		ldr	r2, [r3]
 404 0022 22F00102 		bic	r2, r2, #1
 405 0026 1A60     		str	r2, [r3]
 406              	.L37:
 407 0028 2046     		mov	r0, r4
 408 002a FFF7FEFF 		bl	HAL_TIM_Base_MspDeInit
 409 002e 0020     		movs	r0, #0
 410 0030 84F84600 		strb	r0, [r4, #70]
 411 0034 84F83E00 		strb	r0, [r4, #62]
 412 0038 84F83F00 		strb	r0, [r4, #63]
 413 003c 84F84000 		strb	r0, [r4, #64]
 414 0040 84F84100 		strb	r0, [r4, #65]
 415 0044 84F84200 		strb	r0, [r4, #66]
 416 0048 84F84300 		strb	r0, [r4, #67]
 417 004c 84F84400 		strb	r0, [r4, #68]
 418 0050 84F84500 		strb	r0, [r4, #69]
 419 0054 84F83D00 		strb	r0, [r4, #61]
 420 0058 84F83C00 		strb	r0, [r4, #60]
 421 005c 10BD     		pop	{r4, pc}
 423              		.section	.text.HAL_TIM_Base_Start,"ax",%progbits
ARM GAS  /tmp/cc01cbqV.s 			page 8


 424              		.align	1
 425              		.global	HAL_TIM_Base_Start
 426              		.syntax unified
 427              		.thumb
 428              		.thumb_func
 429              		.fpu fpv4-sp-d16
 431              	HAL_TIM_Base_Start:
 432              		@ args = 0, pretend = 0, frame = 0
 433              		@ frame_needed = 0, uses_anonymous_args = 0
 434              		@ link register save eliminated.
 435 0000 90F83D30 		ldrb	r3, [r0, #61]	@ zero_extendqisi2
 436 0004 DBB2     		uxtb	r3, r3
 437 0006 012B     		cmp	r3, #1
 438 0008 32D1     		bne	.L43
 439 000a 0223     		movs	r3, #2
 440 000c 80F83D30 		strb	r3, [r0, #61]
 441 0010 0368     		ldr	r3, [r0]
 442 0012 194A     		ldr	r2, .L45
 443 0014 9342     		cmp	r3, r2
 444 0016 20D0     		beq	.L41
 445 0018 B3F1804F 		cmp	r3, #1073741824
 446 001c 1DD0     		beq	.L41
 447 001e A2F57C42 		sub	r2, r2, #64512
 448 0022 9342     		cmp	r3, r2
 449 0024 19D0     		beq	.L41
 450 0026 02F58062 		add	r2, r2, #1024
 451 002a 9342     		cmp	r3, r2
 452 002c 15D0     		beq	.L41
 453 002e 02F58062 		add	r2, r2, #1024
 454 0032 9342     		cmp	r3, r2
 455 0034 11D0     		beq	.L41
 456 0036 02F57842 		add	r2, r2, #63488
 457 003a 9342     		cmp	r3, r2
 458 003c 0DD0     		beq	.L41
 459 003e 02F57052 		add	r2, r2, #15360
 460 0042 9342     		cmp	r3, r2
 461 0044 09D0     		beq	.L41
 462 0046 A2F59432 		sub	r2, r2, #75776
 463 004a 9342     		cmp	r3, r2
 464 004c 05D0     		beq	.L41
 465 004e 1A68     		ldr	r2, [r3]
 466 0050 42F00102 		orr	r2, r2, #1
 467 0054 1A60     		str	r2, [r3]
 468 0056 0020     		movs	r0, #0
 469 0058 7047     		bx	lr
 470              	.L41:
 471 005a 9A68     		ldr	r2, [r3, #8]
 472 005c 02F00702 		and	r2, r2, #7
 473 0060 062A     		cmp	r2, #6
 474 0062 07D0     		beq	.L44
 475 0064 1A68     		ldr	r2, [r3]
 476 0066 42F00102 		orr	r2, r2, #1
 477 006a 1A60     		str	r2, [r3]
 478 006c 0020     		movs	r0, #0
 479 006e 7047     		bx	lr
 480              	.L43:
 481 0070 0120     		movs	r0, #1
ARM GAS  /tmp/cc01cbqV.s 			page 9


 482 0072 7047     		bx	lr
 483              	.L44:
 484 0074 0020     		movs	r0, #0
 485 0076 7047     		bx	lr
 486              	.L46:
 487              		.align	2
 488              	.L45:
 489 0078 00000140 		.word	1073807360
 491              		.section	.text.HAL_TIM_Base_Stop,"ax",%progbits
 492              		.align	1
 493              		.global	HAL_TIM_Base_Stop
 494              		.syntax unified
 495              		.thumb
 496              		.thumb_func
 497              		.fpu fpv4-sp-d16
 499              	HAL_TIM_Base_Stop:
 500              		@ args = 0, pretend = 0, frame = 0
 501              		@ frame_needed = 0, uses_anonymous_args = 0
 502              		@ link register save eliminated.
 503 0000 0368     		ldr	r3, [r0]
 504 0002 196A     		ldr	r1, [r3, #32]
 505 0004 41F21112 		movw	r2, #4369
 506 0008 1142     		tst	r1, r2
 507 000a 08D1     		bne	.L48
 508 000c 196A     		ldr	r1, [r3, #32]
 509 000e 40F24442 		movw	r2, #1092
 510 0012 1142     		tst	r1, r2
 511 0014 03D1     		bne	.L48
 512 0016 1A68     		ldr	r2, [r3]
 513 0018 22F00102 		bic	r2, r2, #1
 514 001c 1A60     		str	r2, [r3]
 515              	.L48:
 516 001e 0123     		movs	r3, #1
 517 0020 80F83D30 		strb	r3, [r0, #61]
 518 0024 0020     		movs	r0, #0
 519 0026 7047     		bx	lr
 521              		.section	.text.HAL_TIM_Base_Start_IT,"ax",%progbits
 522              		.align	1
 523              		.global	HAL_TIM_Base_Start_IT
 524              		.syntax unified
 525              		.thumb
 526              		.thumb_func
 527              		.fpu fpv4-sp-d16
 529              	HAL_TIM_Base_Start_IT:
 530              		@ args = 0, pretend = 0, frame = 0
 531              		@ frame_needed = 0, uses_anonymous_args = 0
 532              		@ link register save eliminated.
 533 0000 90F83D30 		ldrb	r3, [r0, #61]	@ zero_extendqisi2
 534 0004 DBB2     		uxtb	r3, r3
 535 0006 012B     		cmp	r3, #1
 536 0008 37D1     		bne	.L53
 537 000a 0223     		movs	r3, #2
 538 000c 80F83D30 		strb	r3, [r0, #61]
 539 0010 0268     		ldr	r2, [r0]
 540 0012 D368     		ldr	r3, [r2, #12]
 541 0014 43F00103 		orr	r3, r3, #1
 542 0018 D360     		str	r3, [r2, #12]
ARM GAS  /tmp/cc01cbqV.s 			page 10


 543 001a 0368     		ldr	r3, [r0]
 544 001c 194A     		ldr	r2, .L55
 545 001e 9342     		cmp	r3, r2
 546 0020 20D0     		beq	.L51
 547 0022 B3F1804F 		cmp	r3, #1073741824
 548 0026 1DD0     		beq	.L51
 549 0028 A2F57C42 		sub	r2, r2, #64512
 550 002c 9342     		cmp	r3, r2
 551 002e 19D0     		beq	.L51
 552 0030 02F58062 		add	r2, r2, #1024
 553 0034 9342     		cmp	r3, r2
 554 0036 15D0     		beq	.L51
 555 0038 02F58062 		add	r2, r2, #1024
 556 003c 9342     		cmp	r3, r2
 557 003e 11D0     		beq	.L51
 558 0040 02F57842 		add	r2, r2, #63488
 559 0044 9342     		cmp	r3, r2
 560 0046 0DD0     		beq	.L51
 561 0048 02F57052 		add	r2, r2, #15360
 562 004c 9342     		cmp	r3, r2
 563 004e 09D0     		beq	.L51
 564 0050 A2F59432 		sub	r2, r2, #75776
 565 0054 9342     		cmp	r3, r2
 566 0056 05D0     		beq	.L51
 567 0058 1A68     		ldr	r2, [r3]
 568 005a 42F00102 		orr	r2, r2, #1
 569 005e 1A60     		str	r2, [r3]
 570 0060 0020     		movs	r0, #0
 571 0062 7047     		bx	lr
 572              	.L51:
 573 0064 9A68     		ldr	r2, [r3, #8]
 574 0066 02F00702 		and	r2, r2, #7
 575 006a 062A     		cmp	r2, #6
 576 006c 07D0     		beq	.L54
 577 006e 1A68     		ldr	r2, [r3]
 578 0070 42F00102 		orr	r2, r2, #1
 579 0074 1A60     		str	r2, [r3]
 580 0076 0020     		movs	r0, #0
 581 0078 7047     		bx	lr
 582              	.L53:
 583 007a 0120     		movs	r0, #1
 584 007c 7047     		bx	lr
 585              	.L54:
 586 007e 0020     		movs	r0, #0
 587 0080 7047     		bx	lr
 588              	.L56:
 589 0082 00BF     		.align	2
 590              	.L55:
 591 0084 00000140 		.word	1073807360
 593              		.section	.text.HAL_TIM_Base_Stop_IT,"ax",%progbits
 594              		.align	1
 595              		.global	HAL_TIM_Base_Stop_IT
 596              		.syntax unified
 597              		.thumb
 598              		.thumb_func
 599              		.fpu fpv4-sp-d16
 601              	HAL_TIM_Base_Stop_IT:
ARM GAS  /tmp/cc01cbqV.s 			page 11


 602              		@ args = 0, pretend = 0, frame = 0
 603              		@ frame_needed = 0, uses_anonymous_args = 0
 604              		@ link register save eliminated.
 605 0000 0268     		ldr	r2, [r0]
 606 0002 D368     		ldr	r3, [r2, #12]
 607 0004 23F00103 		bic	r3, r3, #1
 608 0008 D360     		str	r3, [r2, #12]
 609 000a 0368     		ldr	r3, [r0]
 610 000c 196A     		ldr	r1, [r3, #32]
 611 000e 41F21112 		movw	r2, #4369
 612 0012 1142     		tst	r1, r2
 613 0014 08D1     		bne	.L58
 614 0016 196A     		ldr	r1, [r3, #32]
 615 0018 40F24442 		movw	r2, #1092
 616 001c 1142     		tst	r1, r2
 617 001e 03D1     		bne	.L58
 618 0020 1A68     		ldr	r2, [r3]
 619 0022 22F00102 		bic	r2, r2, #1
 620 0026 1A60     		str	r2, [r3]
 621              	.L58:
 622 0028 0123     		movs	r3, #1
 623 002a 80F83D30 		strb	r3, [r0, #61]
 624 002e 0020     		movs	r0, #0
 625 0030 7047     		bx	lr
 627              		.section	.text.HAL_TIM_Base_Start_DMA,"ax",%progbits
 628              		.align	1
 629              		.global	HAL_TIM_Base_Start_DMA
 630              		.syntax unified
 631              		.thumb
 632              		.thumb_func
 633              		.fpu fpv4-sp-d16
 635              	HAL_TIM_Base_Start_DMA:
 636              		@ args = 0, pretend = 0, frame = 0
 637              		@ frame_needed = 0, uses_anonymous_args = 0
 638 0000 38B5     		push	{r3, r4, r5, lr}
 639 0002 90F83D40 		ldrb	r4, [r0, #61]	@ zero_extendqisi2
 640 0006 E4B2     		uxtb	r4, r4
 641 0008 022C     		cmp	r4, #2
 642 000a 56D0     		beq	.L60
 643 000c 0546     		mov	r5, r0
 644 000e 90F83D40 		ldrb	r4, [r0, #61]	@ zero_extendqisi2
 645 0012 E4B2     		uxtb	r4, r4
 646 0014 012C     		cmp	r4, #1
 647 0016 4FD1     		bne	.L64
 648 0018 0029     		cmp	r1, #0
 649 001a 3FD0     		beq	.L67
 650              	.L61:
 651 001c 0223     		movs	r3, #2
 652 001e 85F83D30 		strb	r3, [r5, #61]
 653 0022 2B6A     		ldr	r3, [r5, #32]
 654 0024 2748     		ldr	r0, .L68
 655 0026 D863     		str	r0, [r3, #60]
 656 0028 2B6A     		ldr	r3, [r5, #32]
 657 002a 2748     		ldr	r0, .L68+4
 658 002c 1864     		str	r0, [r3, #64]
 659 002e 2B6A     		ldr	r3, [r5, #32]
 660 0030 2648     		ldr	r0, .L68+8
ARM GAS  /tmp/cc01cbqV.s 			page 12


 661 0032 D864     		str	r0, [r3, #76]
 662 0034 2868     		ldr	r0, [r5]
 663 0036 1346     		mov	r3, r2
 664 0038 00F12C02 		add	r2, r0, #44
 665 003c 286A     		ldr	r0, [r5, #32]
 666 003e FFF7FEFF 		bl	HAL_DMA_Start_IT
 667 0042 0146     		mov	r1, r0
 668 0044 0028     		cmp	r0, #0
 669 0046 38D1     		bne	.L60
 670 0048 2A68     		ldr	r2, [r5]
 671 004a D368     		ldr	r3, [r2, #12]
 672 004c 43F48073 		orr	r3, r3, #256
 673 0050 D360     		str	r3, [r2, #12]
 674 0052 2B68     		ldr	r3, [r5]
 675 0054 1E4A     		ldr	r2, .L68+12
 676 0056 9342     		cmp	r3, r2
 677 0058 23D0     		beq	.L62
 678 005a B3F1804F 		cmp	r3, #1073741824
 679 005e 20D0     		beq	.L62
 680 0060 A2F57C42 		sub	r2, r2, #64512
 681 0064 9342     		cmp	r3, r2
 682 0066 1CD0     		beq	.L62
 683 0068 02F58062 		add	r2, r2, #1024
 684 006c 9342     		cmp	r3, r2
 685 006e 18D0     		beq	.L62
 686 0070 02F58062 		add	r2, r2, #1024
 687 0074 9342     		cmp	r3, r2
 688 0076 14D0     		beq	.L62
 689 0078 02F57842 		add	r2, r2, #63488
 690 007c 9342     		cmp	r3, r2
 691 007e 10D0     		beq	.L62
 692 0080 02F57052 		add	r2, r2, #15360
 693 0084 9342     		cmp	r3, r2
 694 0086 0CD0     		beq	.L62
 695 0088 A2F59432 		sub	r2, r2, #75776
 696 008c 9342     		cmp	r3, r2
 697 008e 08D0     		beq	.L62
 698 0090 1A68     		ldr	r2, [r3]
 699 0092 42F00102 		orr	r2, r2, #1
 700 0096 1A60     		str	r2, [r3]
 701 0098 0446     		mov	r4, r0
 702 009a 0EE0     		b	.L60
 703              	.L67:
 704 009c 002A     		cmp	r2, #0
 705 009e BDD0     		beq	.L61
 706 00a0 0BE0     		b	.L60
 707              	.L62:
 708 00a2 9A68     		ldr	r2, [r3, #8]
 709 00a4 02F00702 		and	r2, r2, #7
 710 00a8 062A     		cmp	r2, #6
 711 00aa 08D0     		beq	.L65
 712 00ac 1A68     		ldr	r2, [r3]
 713 00ae 42F00102 		orr	r2, r2, #1
 714 00b2 1A60     		str	r2, [r3]
 715 00b4 0C46     		mov	r4, r1
 716 00b6 00E0     		b	.L60
 717              	.L64:
ARM GAS  /tmp/cc01cbqV.s 			page 13


 718 00b8 0124     		movs	r4, #1
 719              	.L60:
 720 00ba 2046     		mov	r0, r4
 721 00bc 38BD     		pop	{r3, r4, r5, pc}
 722              	.L65:
 723 00be 0C46     		mov	r4, r1
 724 00c0 FBE7     		b	.L60
 725              	.L69:
 726 00c2 00BF     		.align	2
 727              	.L68:
 728 00c4 00000000 		.word	TIM_DMAPeriodElapsedCplt
 729 00c8 00000000 		.word	TIM_DMAPeriodElapsedHalfCplt
 730 00cc 00000000 		.word	TIM_DMAError
 731 00d0 00000140 		.word	1073807360
 733              		.section	.text.HAL_TIM_Base_Stop_DMA,"ax",%progbits
 734              		.align	1
 735              		.global	HAL_TIM_Base_Stop_DMA
 736              		.syntax unified
 737              		.thumb
 738              		.thumb_func
 739              		.fpu fpv4-sp-d16
 741              	HAL_TIM_Base_Stop_DMA:
 742              		@ args = 0, pretend = 0, frame = 0
 743              		@ frame_needed = 0, uses_anonymous_args = 0
 744 0000 10B5     		push	{r4, lr}
 745 0002 0446     		mov	r4, r0
 746 0004 0268     		ldr	r2, [r0]
 747 0006 D368     		ldr	r3, [r2, #12]
 748 0008 23F48073 		bic	r3, r3, #256
 749 000c D360     		str	r3, [r2, #12]
 750 000e 006A     		ldr	r0, [r0, #32]
 751 0010 FFF7FEFF 		bl	HAL_DMA_Abort_IT
 752 0014 2368     		ldr	r3, [r4]
 753 0016 196A     		ldr	r1, [r3, #32]
 754 0018 41F21112 		movw	r2, #4369
 755 001c 1142     		tst	r1, r2
 756 001e 08D1     		bne	.L71
 757 0020 196A     		ldr	r1, [r3, #32]
 758 0022 40F24442 		movw	r2, #1092
 759 0026 1142     		tst	r1, r2
 760 0028 03D1     		bne	.L71
 761 002a 1A68     		ldr	r2, [r3]
 762 002c 22F00102 		bic	r2, r2, #1
 763 0030 1A60     		str	r2, [r3]
 764              	.L71:
 765 0032 0123     		movs	r3, #1
 766 0034 84F83D30 		strb	r3, [r4, #61]
 767 0038 0020     		movs	r0, #0
 768 003a 10BD     		pop	{r4, pc}
 770              		.section	.text.HAL_TIM_OC_MspInit,"ax",%progbits
 771              		.align	1
 772              		.weak	HAL_TIM_OC_MspInit
 773              		.syntax unified
 774              		.thumb
 775              		.thumb_func
 776              		.fpu fpv4-sp-d16
 778              	HAL_TIM_OC_MspInit:
ARM GAS  /tmp/cc01cbqV.s 			page 14


 779              		@ args = 0, pretend = 0, frame = 0
 780              		@ frame_needed = 0, uses_anonymous_args = 0
 781              		@ link register save eliminated.
 782 0000 7047     		bx	lr
 784              		.section	.text.HAL_TIM_OC_MspDeInit,"ax",%progbits
 785              		.align	1
 786              		.weak	HAL_TIM_OC_MspDeInit
 787              		.syntax unified
 788              		.thumb
 789              		.thumb_func
 790              		.fpu fpv4-sp-d16
 792              	HAL_TIM_OC_MspDeInit:
 793              		@ args = 0, pretend = 0, frame = 0
 794              		@ frame_needed = 0, uses_anonymous_args = 0
 795              		@ link register save eliminated.
 796 0000 7047     		bx	lr
 798              		.section	.text.HAL_TIM_OC_DeInit,"ax",%progbits
 799              		.align	1
 800              		.global	HAL_TIM_OC_DeInit
 801              		.syntax unified
 802              		.thumb
 803              		.thumb_func
 804              		.fpu fpv4-sp-d16
 806              	HAL_TIM_OC_DeInit:
 807              		@ args = 0, pretend = 0, frame = 0
 808              		@ frame_needed = 0, uses_anonymous_args = 0
 809 0000 10B5     		push	{r4, lr}
 810 0002 0446     		mov	r4, r0
 811 0004 0223     		movs	r3, #2
 812 0006 80F83D30 		strb	r3, [r0, #61]
 813 000a 0368     		ldr	r3, [r0]
 814 000c 196A     		ldr	r1, [r3, #32]
 815 000e 41F21112 		movw	r2, #4369
 816 0012 1142     		tst	r1, r2
 817 0014 08D1     		bne	.L76
 818 0016 196A     		ldr	r1, [r3, #32]
 819 0018 40F24442 		movw	r2, #1092
 820 001c 1142     		tst	r1, r2
 821 001e 03D1     		bne	.L76
 822 0020 1A68     		ldr	r2, [r3]
 823 0022 22F00102 		bic	r2, r2, #1
 824 0026 1A60     		str	r2, [r3]
 825              	.L76:
 826 0028 2046     		mov	r0, r4
 827 002a FFF7FEFF 		bl	HAL_TIM_OC_MspDeInit
 828 002e 0020     		movs	r0, #0
 829 0030 84F84600 		strb	r0, [r4, #70]
 830 0034 84F83E00 		strb	r0, [r4, #62]
 831 0038 84F83F00 		strb	r0, [r4, #63]
 832 003c 84F84000 		strb	r0, [r4, #64]
 833 0040 84F84100 		strb	r0, [r4, #65]
 834 0044 84F84200 		strb	r0, [r4, #66]
 835 0048 84F84300 		strb	r0, [r4, #67]
 836 004c 84F84400 		strb	r0, [r4, #68]
 837 0050 84F84500 		strb	r0, [r4, #69]
 838 0054 84F83D00 		strb	r0, [r4, #61]
 839 0058 84F83C00 		strb	r0, [r4, #60]
ARM GAS  /tmp/cc01cbqV.s 			page 15


 840 005c 10BD     		pop	{r4, pc}
 842              		.section	.text.HAL_TIM_PWM_MspInit,"ax",%progbits
 843              		.align	1
 844              		.weak	HAL_TIM_PWM_MspInit
 845              		.syntax unified
 846              		.thumb
 847              		.thumb_func
 848              		.fpu fpv4-sp-d16
 850              	HAL_TIM_PWM_MspInit:
 851              		@ args = 0, pretend = 0, frame = 0
 852              		@ frame_needed = 0, uses_anonymous_args = 0
 853              		@ link register save eliminated.
 854 0000 7047     		bx	lr
 856              		.section	.text.HAL_TIM_PWM_MspDeInit,"ax",%progbits
 857              		.align	1
 858              		.weak	HAL_TIM_PWM_MspDeInit
 859              		.syntax unified
 860              		.thumb
 861              		.thumb_func
 862              		.fpu fpv4-sp-d16
 864              	HAL_TIM_PWM_MspDeInit:
 865              		@ args = 0, pretend = 0, frame = 0
 866              		@ frame_needed = 0, uses_anonymous_args = 0
 867              		@ link register save eliminated.
 868 0000 7047     		bx	lr
 870              		.section	.text.HAL_TIM_PWM_DeInit,"ax",%progbits
 871              		.align	1
 872              		.global	HAL_TIM_PWM_DeInit
 873              		.syntax unified
 874              		.thumb
 875              		.thumb_func
 876              		.fpu fpv4-sp-d16
 878              	HAL_TIM_PWM_DeInit:
 879              		@ args = 0, pretend = 0, frame = 0
 880              		@ frame_needed = 0, uses_anonymous_args = 0
 881 0000 10B5     		push	{r4, lr}
 882 0002 0446     		mov	r4, r0
 883 0004 0223     		movs	r3, #2
 884 0006 80F83D30 		strb	r3, [r0, #61]
 885 000a 0368     		ldr	r3, [r0]
 886 000c 196A     		ldr	r1, [r3, #32]
 887 000e 41F21112 		movw	r2, #4369
 888 0012 1142     		tst	r1, r2
 889 0014 08D1     		bne	.L81
 890 0016 196A     		ldr	r1, [r3, #32]
 891 0018 40F24442 		movw	r2, #1092
 892 001c 1142     		tst	r1, r2
 893 001e 03D1     		bne	.L81
 894 0020 1A68     		ldr	r2, [r3]
 895 0022 22F00102 		bic	r2, r2, #1
 896 0026 1A60     		str	r2, [r3]
 897              	.L81:
 898 0028 2046     		mov	r0, r4
 899 002a FFF7FEFF 		bl	HAL_TIM_PWM_MspDeInit
 900 002e 0020     		movs	r0, #0
 901 0030 84F84600 		strb	r0, [r4, #70]
 902 0034 84F83E00 		strb	r0, [r4, #62]
ARM GAS  /tmp/cc01cbqV.s 			page 16


 903 0038 84F83F00 		strb	r0, [r4, #63]
 904 003c 84F84000 		strb	r0, [r4, #64]
 905 0040 84F84100 		strb	r0, [r4, #65]
 906 0044 84F84200 		strb	r0, [r4, #66]
 907 0048 84F84300 		strb	r0, [r4, #67]
 908 004c 84F84400 		strb	r0, [r4, #68]
 909 0050 84F84500 		strb	r0, [r4, #69]
 910 0054 84F83D00 		strb	r0, [r4, #61]
 911 0058 84F83C00 		strb	r0, [r4, #60]
 912 005c 10BD     		pop	{r4, pc}
 914              		.section	.text.HAL_TIM_IC_MspInit,"ax",%progbits
 915              		.align	1
 916              		.weak	HAL_TIM_IC_MspInit
 917              		.syntax unified
 918              		.thumb
 919              		.thumb_func
 920              		.fpu fpv4-sp-d16
 922              	HAL_TIM_IC_MspInit:
 923              		@ args = 0, pretend = 0, frame = 0
 924              		@ frame_needed = 0, uses_anonymous_args = 0
 925              		@ link register save eliminated.
 926 0000 7047     		bx	lr
 928              		.section	.text.HAL_TIM_IC_MspDeInit,"ax",%progbits
 929              		.align	1
 930              		.weak	HAL_TIM_IC_MspDeInit
 931              		.syntax unified
 932              		.thumb
 933              		.thumb_func
 934              		.fpu fpv4-sp-d16
 936              	HAL_TIM_IC_MspDeInit:
 937              		@ args = 0, pretend = 0, frame = 0
 938              		@ frame_needed = 0, uses_anonymous_args = 0
 939              		@ link register save eliminated.
 940 0000 7047     		bx	lr
 942              		.section	.text.HAL_TIM_IC_DeInit,"ax",%progbits
 943              		.align	1
 944              		.global	HAL_TIM_IC_DeInit
 945              		.syntax unified
 946              		.thumb
 947              		.thumb_func
 948              		.fpu fpv4-sp-d16
 950              	HAL_TIM_IC_DeInit:
 951              		@ args = 0, pretend = 0, frame = 0
 952              		@ frame_needed = 0, uses_anonymous_args = 0
 953 0000 10B5     		push	{r4, lr}
 954 0002 0446     		mov	r4, r0
 955 0004 0223     		movs	r3, #2
 956 0006 80F83D30 		strb	r3, [r0, #61]
 957 000a 0368     		ldr	r3, [r0]
 958 000c 196A     		ldr	r1, [r3, #32]
 959 000e 41F21112 		movw	r2, #4369
 960 0012 1142     		tst	r1, r2
 961 0014 08D1     		bne	.L86
 962 0016 196A     		ldr	r1, [r3, #32]
 963 0018 40F24442 		movw	r2, #1092
 964 001c 1142     		tst	r1, r2
 965 001e 03D1     		bne	.L86
ARM GAS  /tmp/cc01cbqV.s 			page 17


 966 0020 1A68     		ldr	r2, [r3]
 967 0022 22F00102 		bic	r2, r2, #1
 968 0026 1A60     		str	r2, [r3]
 969              	.L86:
 970 0028 2046     		mov	r0, r4
 971 002a FFF7FEFF 		bl	HAL_TIM_IC_MspDeInit
 972 002e 0020     		movs	r0, #0
 973 0030 84F84600 		strb	r0, [r4, #70]
 974 0034 84F83E00 		strb	r0, [r4, #62]
 975 0038 84F83F00 		strb	r0, [r4, #63]
 976 003c 84F84000 		strb	r0, [r4, #64]
 977 0040 84F84100 		strb	r0, [r4, #65]
 978 0044 84F84200 		strb	r0, [r4, #66]
 979 0048 84F84300 		strb	r0, [r4, #67]
 980 004c 84F84400 		strb	r0, [r4, #68]
 981 0050 84F84500 		strb	r0, [r4, #69]
 982 0054 84F83D00 		strb	r0, [r4, #61]
 983 0058 84F83C00 		strb	r0, [r4, #60]
 984 005c 10BD     		pop	{r4, pc}
 986              		.section	.text.HAL_TIM_OnePulse_MspInit,"ax",%progbits
 987              		.align	1
 988              		.weak	HAL_TIM_OnePulse_MspInit
 989              		.syntax unified
 990              		.thumb
 991              		.thumb_func
 992              		.fpu fpv4-sp-d16
 994              	HAL_TIM_OnePulse_MspInit:
 995              		@ args = 0, pretend = 0, frame = 0
 996              		@ frame_needed = 0, uses_anonymous_args = 0
 997              		@ link register save eliminated.
 998 0000 7047     		bx	lr
 1000              		.section	.text.HAL_TIM_OnePulse_MspDeInit,"ax",%progbits
 1001              		.align	1
 1002              		.weak	HAL_TIM_OnePulse_MspDeInit
 1003              		.syntax unified
 1004              		.thumb
 1005              		.thumb_func
 1006              		.fpu fpv4-sp-d16
 1008              	HAL_TIM_OnePulse_MspDeInit:
 1009              		@ args = 0, pretend = 0, frame = 0
 1010              		@ frame_needed = 0, uses_anonymous_args = 0
 1011              		@ link register save eliminated.
 1012 0000 7047     		bx	lr
 1014              		.section	.text.HAL_TIM_OnePulse_DeInit,"ax",%progbits
 1015              		.align	1
 1016              		.global	HAL_TIM_OnePulse_DeInit
 1017              		.syntax unified
 1018              		.thumb
 1019              		.thumb_func
 1020              		.fpu fpv4-sp-d16
 1022              	HAL_TIM_OnePulse_DeInit:
 1023              		@ args = 0, pretend = 0, frame = 0
 1024              		@ frame_needed = 0, uses_anonymous_args = 0
 1025 0000 10B5     		push	{r4, lr}
 1026 0002 0446     		mov	r4, r0
 1027 0004 0223     		movs	r3, #2
 1028 0006 80F83D30 		strb	r3, [r0, #61]
ARM GAS  /tmp/cc01cbqV.s 			page 18


 1029 000a 0368     		ldr	r3, [r0]
 1030 000c 196A     		ldr	r1, [r3, #32]
 1031 000e 41F21112 		movw	r2, #4369
 1032 0012 1142     		tst	r1, r2
 1033 0014 08D1     		bne	.L91
 1034 0016 196A     		ldr	r1, [r3, #32]
 1035 0018 40F24442 		movw	r2, #1092
 1036 001c 1142     		tst	r1, r2
 1037 001e 03D1     		bne	.L91
 1038 0020 1A68     		ldr	r2, [r3]
 1039 0022 22F00102 		bic	r2, r2, #1
 1040 0026 1A60     		str	r2, [r3]
 1041              	.L91:
 1042 0028 2046     		mov	r0, r4
 1043 002a FFF7FEFF 		bl	HAL_TIM_OnePulse_MspDeInit
 1044 002e 0020     		movs	r0, #0
 1045 0030 84F84600 		strb	r0, [r4, #70]
 1046 0034 84F83E00 		strb	r0, [r4, #62]
 1047 0038 84F83F00 		strb	r0, [r4, #63]
 1048 003c 84F84200 		strb	r0, [r4, #66]
 1049 0040 84F84300 		strb	r0, [r4, #67]
 1050 0044 84F83D00 		strb	r0, [r4, #61]
 1051 0048 84F83C00 		strb	r0, [r4, #60]
 1052 004c 10BD     		pop	{r4, pc}
 1054              		.section	.text.HAL_TIM_Encoder_MspInit,"ax",%progbits
 1055              		.align	1
 1056              		.weak	HAL_TIM_Encoder_MspInit
 1057              		.syntax unified
 1058              		.thumb
 1059              		.thumb_func
 1060              		.fpu fpv4-sp-d16
 1062              	HAL_TIM_Encoder_MspInit:
 1063              		@ args = 0, pretend = 0, frame = 0
 1064              		@ frame_needed = 0, uses_anonymous_args = 0
 1065              		@ link register save eliminated.
 1066 0000 7047     		bx	lr
 1068              		.section	.text.HAL_TIM_Encoder_MspDeInit,"ax",%progbits
 1069              		.align	1
 1070              		.weak	HAL_TIM_Encoder_MspDeInit
 1071              		.syntax unified
 1072              		.thumb
 1073              		.thumb_func
 1074              		.fpu fpv4-sp-d16
 1076              	HAL_TIM_Encoder_MspDeInit:
 1077              		@ args = 0, pretend = 0, frame = 0
 1078              		@ frame_needed = 0, uses_anonymous_args = 0
 1079              		@ link register save eliminated.
 1080 0000 7047     		bx	lr
 1082              		.section	.text.HAL_TIM_Encoder_DeInit,"ax",%progbits
 1083              		.align	1
 1084              		.global	HAL_TIM_Encoder_DeInit
 1085              		.syntax unified
 1086              		.thumb
 1087              		.thumb_func
 1088              		.fpu fpv4-sp-d16
 1090              	HAL_TIM_Encoder_DeInit:
 1091              		@ args = 0, pretend = 0, frame = 0
ARM GAS  /tmp/cc01cbqV.s 			page 19


 1092              		@ frame_needed = 0, uses_anonymous_args = 0
 1093 0000 10B5     		push	{r4, lr}
 1094 0002 0446     		mov	r4, r0
 1095 0004 0223     		movs	r3, #2
 1096 0006 80F83D30 		strb	r3, [r0, #61]
 1097 000a 0368     		ldr	r3, [r0]
 1098 000c 196A     		ldr	r1, [r3, #32]
 1099 000e 41F21112 		movw	r2, #4369
 1100 0012 1142     		tst	r1, r2
 1101 0014 08D1     		bne	.L96
 1102 0016 196A     		ldr	r1, [r3, #32]
 1103 0018 40F24442 		movw	r2, #1092
 1104 001c 1142     		tst	r1, r2
 1105 001e 03D1     		bne	.L96
 1106 0020 1A68     		ldr	r2, [r3]
 1107 0022 22F00102 		bic	r2, r2, #1
 1108 0026 1A60     		str	r2, [r3]
 1109              	.L96:
 1110 0028 2046     		mov	r0, r4
 1111 002a FFF7FEFF 		bl	HAL_TIM_Encoder_MspDeInit
 1112 002e 0020     		movs	r0, #0
 1113 0030 84F84600 		strb	r0, [r4, #70]
 1114 0034 84F83E00 		strb	r0, [r4, #62]
 1115 0038 84F83F00 		strb	r0, [r4, #63]
 1116 003c 84F84200 		strb	r0, [r4, #66]
 1117 0040 84F84300 		strb	r0, [r4, #67]
 1118 0044 84F83D00 		strb	r0, [r4, #61]
 1119 0048 84F83C00 		strb	r0, [r4, #60]
 1120 004c 10BD     		pop	{r4, pc}
 1122              		.section	.text.HAL_TIM_DMABurst_MultiWriteStart,"ax",%progbits
 1123              		.align	1
 1124              		.global	HAL_TIM_DMABurst_MultiWriteStart
 1125              		.syntax unified
 1126              		.thumb
 1127              		.thumb_func
 1128              		.fpu fpv4-sp-d16
 1130              	HAL_TIM_DMABurst_MultiWriteStart:
 1131              		@ args = 8, pretend = 0, frame = 0
 1132              		@ frame_needed = 0, uses_anonymous_args = 0
 1133 0000 70B5     		push	{r4, r5, r6, lr}
 1134 0002 0546     		mov	r5, r0
 1135 0004 90F84600 		ldrb	r0, [r0, #70]	@ zero_extendqisi2
 1136 0008 C0B2     		uxtb	r0, r0
 1137 000a 0228     		cmp	r0, #2
 1138 000c 4AD0     		beq	.L99
 1139 000e 0E46     		mov	r6, r1
 1140 0010 1446     		mov	r4, r2
 1141 0012 1946     		mov	r1, r3
 1142 0014 95F84600 		ldrb	r0, [r5, #70]	@ zero_extendqisi2
 1143 0018 C0B2     		uxtb	r0, r0
 1144 001a 0128     		cmp	r0, #1
 1145 001c 1CD0     		beq	.L119
 1146              	.L100:
 1147 001e B4F5006F 		cmp	r4, #2048
 1148 0022 00F08680 		beq	.L102
 1149 0026 40D8     		bhi	.L103
 1150 0028 B4F5007F 		cmp	r4, #512
ARM GAS  /tmp/cc01cbqV.s 			page 20


 1151 002c 6ED0     		beq	.L104
 1152 002e B4F5806F 		cmp	r4, #1024
 1153 0032 1AD1     		bne	.L120
 1154 0034 AB6A     		ldr	r3, [r5, #40]
 1155 0036 534A     		ldr	r2, .L126
 1156 0038 DA63     		str	r2, [r3, #60]
 1157 003a AB6A     		ldr	r3, [r5, #40]
 1158 003c 524A     		ldr	r2, .L126+4
 1159 003e 1A64     		str	r2, [r3, #64]
 1160 0040 AB6A     		ldr	r3, [r5, #40]
 1161 0042 524A     		ldr	r2, .L126+8
 1162 0044 DA64     		str	r2, [r3, #76]
 1163 0046 2A68     		ldr	r2, [r5]
 1164 0048 059B     		ldr	r3, [sp, #20]
 1165 004a 4C32     		adds	r2, r2, #76
 1166 004c A86A     		ldr	r0, [r5, #40]
 1167 004e FFF7FEFF 		bl	HAL_DMA_Start_IT
 1168 0052 F0B1     		cbz	r0, .L110
 1169 0054 0120     		movs	r0, #1
 1170 0056 25E0     		b	.L99
 1171              	.L119:
 1172 0058 1BB1     		cbz	r3, .L121
 1173              	.L101:
 1174 005a 0223     		movs	r3, #2
 1175 005c 85F84630 		strb	r3, [r5, #70]
 1176 0060 DDE7     		b	.L100
 1177              	.L121:
 1178 0062 049B     		ldr	r3, [sp, #16]
 1179 0064 002B     		cmp	r3, #0
 1180 0066 F8D0     		beq	.L101
 1181 0068 1CE0     		b	.L99
 1182              	.L120:
 1183 006a B4F5807F 		cmp	r4, #256
 1184 006e 1AD1     		bne	.L122
 1185 0070 2B6A     		ldr	r3, [r5, #32]
 1186 0072 474A     		ldr	r2, .L126+12
 1187 0074 DA63     		str	r2, [r3, #60]
 1188 0076 2B6A     		ldr	r3, [r5, #32]
 1189 0078 464A     		ldr	r2, .L126+16
 1190 007a 1A64     		str	r2, [r3, #64]
 1191 007c 2B6A     		ldr	r3, [r5, #32]
 1192 007e 434A     		ldr	r2, .L126+8
 1193 0080 DA64     		str	r2, [r3, #76]
 1194 0082 2A68     		ldr	r2, [r5]
 1195 0084 059B     		ldr	r3, [sp, #20]
 1196 0086 4C32     		adds	r2, r2, #76
 1197 0088 286A     		ldr	r0, [r5, #32]
 1198 008a FFF7FEFF 		bl	HAL_DMA_Start_IT
 1199 008e 0028     		cmp	r0, #0
 1200 0090 75D1     		bne	.L123
 1201              	.L110:
 1202 0092 2B68     		ldr	r3, [r5]
 1203 0094 049A     		ldr	r2, [sp, #16]
 1204 0096 1643     		orrs	r6, r6, r2
 1205 0098 9E64     		str	r6, [r3, #72]
 1206 009a 2B68     		ldr	r3, [r5]
 1207 009c DA68     		ldr	r2, [r3, #12]
ARM GAS  /tmp/cc01cbqV.s 			page 21


 1208 009e 1443     		orrs	r4, r4, r2
 1209 00a0 DC60     		str	r4, [r3, #12]
 1210 00a2 0020     		movs	r0, #0
 1211              	.L99:
 1212 00a4 70BD     		pop	{r4, r5, r6, pc}
 1213              	.L122:
 1214 00a6 0120     		movs	r0, #1
 1215 00a8 FCE7     		b	.L99
 1216              	.L103:
 1217 00aa B4F5005F 		cmp	r4, #8192
 1218 00ae 53D0     		beq	.L107
 1219 00b0 B4F5804F 		cmp	r4, #16384
 1220 00b4 12D1     		bne	.L124
 1221 00b6 AB6B     		ldr	r3, [r5, #56]
 1222 00b8 374A     		ldr	r2, .L126+20
 1223 00ba DA63     		str	r2, [r3, #60]
 1224 00bc AB6B     		ldr	r3, [r5, #56]
 1225 00be 374A     		ldr	r2, .L126+24
 1226 00c0 1A64     		str	r2, [r3, #64]
 1227 00c2 AB6B     		ldr	r3, [r5, #56]
 1228 00c4 314A     		ldr	r2, .L126+8
 1229 00c6 DA64     		str	r2, [r3, #76]
 1230 00c8 2A68     		ldr	r2, [r5]
 1231 00ca 059B     		ldr	r3, [sp, #20]
 1232 00cc 4C32     		adds	r2, r2, #76
 1233 00ce A86B     		ldr	r0, [r5, #56]
 1234 00d0 FFF7FEFF 		bl	HAL_DMA_Start_IT
 1235 00d4 0028     		cmp	r0, #0
 1236 00d6 DCD0     		beq	.L110
 1237 00d8 0120     		movs	r0, #1
 1238 00da E3E7     		b	.L99
 1239              	.L124:
 1240 00dc B4F5805F 		cmp	r4, #4096
 1241 00e0 12D1     		bne	.L125
 1242 00e2 2B6B     		ldr	r3, [r5, #48]
 1243 00e4 274A     		ldr	r2, .L126
 1244 00e6 DA63     		str	r2, [r3, #60]
 1245 00e8 2B6B     		ldr	r3, [r5, #48]
 1246 00ea 274A     		ldr	r2, .L126+4
 1247 00ec 1A64     		str	r2, [r3, #64]
 1248 00ee 2B6B     		ldr	r3, [r5, #48]
 1249 00f0 264A     		ldr	r2, .L126+8
 1250 00f2 DA64     		str	r2, [r3, #76]
 1251 00f4 2A68     		ldr	r2, [r5]
 1252 00f6 059B     		ldr	r3, [sp, #20]
 1253 00f8 4C32     		adds	r2, r2, #76
 1254 00fa 286B     		ldr	r0, [r5, #48]
 1255 00fc FFF7FEFF 		bl	HAL_DMA_Start_IT
 1256 0100 0028     		cmp	r0, #0
 1257 0102 C6D0     		beq	.L110
 1258 0104 0120     		movs	r0, #1
 1259 0106 CDE7     		b	.L99
 1260              	.L125:
 1261 0108 0120     		movs	r0, #1
 1262 010a CBE7     		b	.L99
 1263              	.L104:
 1264 010c 6B6A     		ldr	r3, [r5, #36]
ARM GAS  /tmp/cc01cbqV.s 			page 22


 1265 010e 1D4A     		ldr	r2, .L126
 1266 0110 DA63     		str	r2, [r3, #60]
 1267 0112 6B6A     		ldr	r3, [r5, #36]
 1268 0114 1C4A     		ldr	r2, .L126+4
 1269 0116 1A64     		str	r2, [r3, #64]
 1270 0118 6B6A     		ldr	r3, [r5, #36]
 1271 011a 1C4A     		ldr	r2, .L126+8
 1272 011c DA64     		str	r2, [r3, #76]
 1273 011e 2A68     		ldr	r2, [r5]
 1274 0120 059B     		ldr	r3, [sp, #20]
 1275 0122 4C32     		adds	r2, r2, #76
 1276 0124 686A     		ldr	r0, [r5, #36]
 1277 0126 FFF7FEFF 		bl	HAL_DMA_Start_IT
 1278 012a 0028     		cmp	r0, #0
 1279 012c B1D0     		beq	.L110
 1280 012e 0120     		movs	r0, #1
 1281 0130 B8E7     		b	.L99
 1282              	.L102:
 1283 0132 EB6A     		ldr	r3, [r5, #44]
 1284 0134 134A     		ldr	r2, .L126
 1285 0136 DA63     		str	r2, [r3, #60]
 1286 0138 EB6A     		ldr	r3, [r5, #44]
 1287 013a 134A     		ldr	r2, .L126+4
 1288 013c 1A64     		str	r2, [r3, #64]
 1289 013e EB6A     		ldr	r3, [r5, #44]
 1290 0140 124A     		ldr	r2, .L126+8
 1291 0142 DA64     		str	r2, [r3, #76]
 1292 0144 2A68     		ldr	r2, [r5]
 1293 0146 059B     		ldr	r3, [sp, #20]
 1294 0148 4C32     		adds	r2, r2, #76
 1295 014a E86A     		ldr	r0, [r5, #44]
 1296 014c FFF7FEFF 		bl	HAL_DMA_Start_IT
 1297 0150 0028     		cmp	r0, #0
 1298 0152 9ED0     		beq	.L110
 1299 0154 0120     		movs	r0, #1
 1300 0156 A5E7     		b	.L99
 1301              	.L107:
 1302 0158 6B6B     		ldr	r3, [r5, #52]
 1303 015a 114A     		ldr	r2, .L126+28
 1304 015c DA63     		str	r2, [r3, #60]
 1305 015e 6B6B     		ldr	r3, [r5, #52]
 1306 0160 104A     		ldr	r2, .L126+32
 1307 0162 1A64     		str	r2, [r3, #64]
 1308 0164 6B6B     		ldr	r3, [r5, #52]
 1309 0166 094A     		ldr	r2, .L126+8
 1310 0168 DA64     		str	r2, [r3, #76]
 1311 016a 2A68     		ldr	r2, [r5]
 1312 016c 059B     		ldr	r3, [sp, #20]
 1313 016e 4C32     		adds	r2, r2, #76
 1314 0170 686B     		ldr	r0, [r5, #52]
 1315 0172 FFF7FEFF 		bl	HAL_DMA_Start_IT
 1316 0176 0028     		cmp	r0, #0
 1317 0178 8BD0     		beq	.L110
 1318 017a 0120     		movs	r0, #1
 1319 017c 92E7     		b	.L99
 1320              	.L123:
 1321 017e 0120     		movs	r0, #1
ARM GAS  /tmp/cc01cbqV.s 			page 23


 1322 0180 90E7     		b	.L99
 1323              	.L127:
 1324 0182 00BF     		.align	2
 1325              	.L126:
 1326 0184 00000000 		.word	TIM_DMADelayPulseCplt
 1327 0188 00000000 		.word	TIM_DMADelayPulseHalfCplt
 1328 018c 00000000 		.word	TIM_DMAError
 1329 0190 00000000 		.word	TIM_DMAPeriodElapsedCplt
 1330 0194 00000000 		.word	TIM_DMAPeriodElapsedHalfCplt
 1331 0198 00000000 		.word	TIM_DMATriggerCplt
 1332 019c 00000000 		.word	TIM_DMATriggerHalfCplt
 1333 01a0 00000000 		.word	TIMEx_DMACommutationCplt
 1334 01a4 00000000 		.word	TIMEx_DMACommutationHalfCplt
 1336              		.section	.text.HAL_TIM_DMABurst_WriteStart,"ax",%progbits
 1337              		.align	1
 1338              		.global	HAL_TIM_DMABurst_WriteStart
 1339              		.syntax unified
 1340              		.thumb
 1341              		.thumb_func
 1342              		.fpu fpv4-sp-d16
 1344              	HAL_TIM_DMABurst_WriteStart:
 1345              		@ args = 4, pretend = 0, frame = 0
 1346              		@ frame_needed = 0, uses_anonymous_args = 0
 1347 0000 30B5     		push	{r4, r5, lr}
 1348 0002 83B0     		sub	sp, sp, #12
 1349 0004 069D     		ldr	r5, [sp, #24]
 1350 0006 2C0A     		lsrs	r4, r5, #8
 1351 0008 0134     		adds	r4, r4, #1
 1352 000a 0194     		str	r4, [sp, #4]
 1353 000c 0095     		str	r5, [sp]
 1354 000e FFF7FEFF 		bl	HAL_TIM_DMABurst_MultiWriteStart
 1355 0012 03B0     		add	sp, sp, #12
 1356              		@ sp needed
 1357 0014 30BD     		pop	{r4, r5, pc}
 1359              		.section	.text.HAL_TIM_DMABurst_WriteStop,"ax",%progbits
 1360              		.align	1
 1361              		.global	HAL_TIM_DMABurst_WriteStop
 1362              		.syntax unified
 1363              		.thumb
 1364              		.thumb_func
 1365              		.fpu fpv4-sp-d16
 1367              	HAL_TIM_DMABurst_WriteStop:
 1368              		@ args = 0, pretend = 0, frame = 0
 1369              		@ frame_needed = 0, uses_anonymous_args = 0
 1370 0000 38B5     		push	{r3, r4, r5, lr}
 1371 0002 0546     		mov	r5, r0
 1372 0004 0C46     		mov	r4, r1
 1373 0006 B1F5006F 		cmp	r1, #2048
 1374 000a 33D0     		beq	.L131
 1375 000c 1BD8     		bhi	.L132
 1376 000e B1F5007F 		cmp	r1, #512
 1377 0012 2BD0     		beq	.L133
 1378 0014 B1F5806F 		cmp	r1, #1024
 1379 0018 03D1     		bne	.L142
 1380 001a 806A     		ldr	r0, [r0, #40]
 1381 001c FFF7FEFF 		bl	HAL_DMA_Abort_IT
 1382 0020 05E0     		b	.L140
ARM GAS  /tmp/cc01cbqV.s 			page 24


 1383              	.L142:
 1384 0022 B1F5807F 		cmp	r1, #256
 1385 0026 0CD1     		bne	.L143
 1386 0028 006A     		ldr	r0, [r0, #32]
 1387 002a FFF7FEFF 		bl	HAL_DMA_Abort_IT
 1388              	.L140:
 1389 002e 2B68     		ldr	r3, [r5]
 1390 0030 D968     		ldr	r1, [r3, #12]
 1391 0032 21EA0404 		bic	r4, r1, r4
 1392 0036 DC60     		str	r4, [r3, #12]
 1393 0038 0123     		movs	r3, #1
 1394 003a 85F84630 		strb	r3, [r5, #70]
 1395 003e 0020     		movs	r0, #0
 1396              	.L136:
 1397 0040 38BD     		pop	{r3, r4, r5, pc}
 1398              	.L143:
 1399 0042 0120     		movs	r0, #1
 1400 0044 FCE7     		b	.L136
 1401              	.L132:
 1402 0046 B1F5005F 		cmp	r1, #8192
 1403 004a 17D0     		beq	.L137
 1404 004c B1F5804F 		cmp	r1, #16384
 1405 0050 03D1     		bne	.L144
 1406 0052 806B     		ldr	r0, [r0, #56]
 1407 0054 FFF7FEFF 		bl	HAL_DMA_Abort_IT
 1408 0058 E9E7     		b	.L140
 1409              	.L144:
 1410 005a B1F5805F 		cmp	r1, #4096
 1411 005e 03D1     		bne	.L145
 1412 0060 006B     		ldr	r0, [r0, #48]
 1413 0062 FFF7FEFF 		bl	HAL_DMA_Abort_IT
 1414 0066 E2E7     		b	.L140
 1415              	.L145:
 1416 0068 0120     		movs	r0, #1
 1417 006a E9E7     		b	.L136
 1418              	.L133:
 1419 006c 406A     		ldr	r0, [r0, #36]
 1420 006e FFF7FEFF 		bl	HAL_DMA_Abort_IT
 1421 0072 DCE7     		b	.L140
 1422              	.L131:
 1423 0074 C06A     		ldr	r0, [r0, #44]
 1424 0076 FFF7FEFF 		bl	HAL_DMA_Abort_IT
 1425 007a D8E7     		b	.L140
 1426              	.L137:
 1427 007c 406B     		ldr	r0, [r0, #52]
 1428 007e FFF7FEFF 		bl	HAL_DMA_Abort_IT
 1429 0082 D4E7     		b	.L140
 1431              		.section	.text.HAL_TIM_DMABurst_MultiReadStart,"ax",%progbits
 1432              		.align	1
 1433              		.global	HAL_TIM_DMABurst_MultiReadStart
 1434              		.syntax unified
 1435              		.thumb
 1436              		.thumb_func
 1437              		.fpu fpv4-sp-d16
 1439              	HAL_TIM_DMABurst_MultiReadStart:
 1440              		@ args = 8, pretend = 0, frame = 0
 1441              		@ frame_needed = 0, uses_anonymous_args = 0
ARM GAS  /tmp/cc01cbqV.s 			page 25


 1442 0000 70B5     		push	{r4, r5, r6, lr}
 1443 0002 0546     		mov	r5, r0
 1444 0004 90F84600 		ldrb	r0, [r0, #70]	@ zero_extendqisi2
 1445 0008 C0B2     		uxtb	r0, r0
 1446 000a 0228     		cmp	r0, #2
 1447 000c 4AD0     		beq	.L147
 1448 000e 0E46     		mov	r6, r1
 1449 0010 1446     		mov	r4, r2
 1450 0012 1A46     		mov	r2, r3
 1451 0014 95F84600 		ldrb	r0, [r5, #70]	@ zero_extendqisi2
 1452 0018 C0B2     		uxtb	r0, r0
 1453 001a 0128     		cmp	r0, #1
 1454 001c 1CD0     		beq	.L167
 1455              	.L148:
 1456 001e B4F5006F 		cmp	r4, #2048
 1457 0022 00F08680 		beq	.L150
 1458 0026 40D8     		bhi	.L151
 1459 0028 B4F5007F 		cmp	r4, #512
 1460 002c 6ED0     		beq	.L152
 1461 002e B4F5806F 		cmp	r4, #1024
 1462 0032 1AD1     		bne	.L168
 1463 0034 AB6A     		ldr	r3, [r5, #40]
 1464 0036 5349     		ldr	r1, .L174
 1465 0038 D963     		str	r1, [r3, #60]
 1466 003a AB6A     		ldr	r3, [r5, #40]
 1467 003c 5249     		ldr	r1, .L174+4
 1468 003e 1964     		str	r1, [r3, #64]
 1469 0040 AB6A     		ldr	r3, [r5, #40]
 1470 0042 5249     		ldr	r1, .L174+8
 1471 0044 D964     		str	r1, [r3, #76]
 1472 0046 2968     		ldr	r1, [r5]
 1473 0048 059B     		ldr	r3, [sp, #20]
 1474 004a 4C31     		adds	r1, r1, #76
 1475 004c A86A     		ldr	r0, [r5, #40]
 1476 004e FFF7FEFF 		bl	HAL_DMA_Start_IT
 1477 0052 F0B1     		cbz	r0, .L158
 1478 0054 0120     		movs	r0, #1
 1479 0056 25E0     		b	.L147
 1480              	.L167:
 1481 0058 1BB1     		cbz	r3, .L169
 1482              	.L149:
 1483 005a 0223     		movs	r3, #2
 1484 005c 85F84630 		strb	r3, [r5, #70]
 1485 0060 DDE7     		b	.L148
 1486              	.L169:
 1487 0062 049B     		ldr	r3, [sp, #16]
 1488 0064 002B     		cmp	r3, #0
 1489 0066 F8D0     		beq	.L149
 1490 0068 1CE0     		b	.L147
 1491              	.L168:
 1492 006a B4F5807F 		cmp	r4, #256
 1493 006e 1AD1     		bne	.L170
 1494 0070 2B6A     		ldr	r3, [r5, #32]
 1495 0072 4749     		ldr	r1, .L174+12
 1496 0074 D963     		str	r1, [r3, #60]
 1497 0076 2B6A     		ldr	r3, [r5, #32]
 1498 0078 4649     		ldr	r1, .L174+16
ARM GAS  /tmp/cc01cbqV.s 			page 26


 1499 007a 1964     		str	r1, [r3, #64]
 1500 007c 2B6A     		ldr	r3, [r5, #32]
 1501 007e 4349     		ldr	r1, .L174+8
 1502 0080 D964     		str	r1, [r3, #76]
 1503 0082 2968     		ldr	r1, [r5]
 1504 0084 059B     		ldr	r3, [sp, #20]
 1505 0086 4C31     		adds	r1, r1, #76
 1506 0088 286A     		ldr	r0, [r5, #32]
 1507 008a FFF7FEFF 		bl	HAL_DMA_Start_IT
 1508 008e 0028     		cmp	r0, #0
 1509 0090 75D1     		bne	.L171
 1510              	.L158:
 1511 0092 2B68     		ldr	r3, [r5]
 1512 0094 049A     		ldr	r2, [sp, #16]
 1513 0096 1643     		orrs	r6, r6, r2
 1514 0098 9E64     		str	r6, [r3, #72]
 1515 009a 2B68     		ldr	r3, [r5]
 1516 009c DA68     		ldr	r2, [r3, #12]
 1517 009e 1443     		orrs	r4, r4, r2
 1518 00a0 DC60     		str	r4, [r3, #12]
 1519 00a2 0020     		movs	r0, #0
 1520              	.L147:
 1521 00a4 70BD     		pop	{r4, r5, r6, pc}
 1522              	.L170:
 1523 00a6 0120     		movs	r0, #1
 1524 00a8 FCE7     		b	.L147
 1525              	.L151:
 1526 00aa B4F5005F 		cmp	r4, #8192
 1527 00ae 53D0     		beq	.L155
 1528 00b0 B4F5804F 		cmp	r4, #16384
 1529 00b4 12D1     		bne	.L172
 1530 00b6 AB6B     		ldr	r3, [r5, #56]
 1531 00b8 3749     		ldr	r1, .L174+20
 1532 00ba D963     		str	r1, [r3, #60]
 1533 00bc AB6B     		ldr	r3, [r5, #56]
 1534 00be 3749     		ldr	r1, .L174+24
 1535 00c0 1964     		str	r1, [r3, #64]
 1536 00c2 AB6B     		ldr	r3, [r5, #56]
 1537 00c4 3149     		ldr	r1, .L174+8
 1538 00c6 D964     		str	r1, [r3, #76]
 1539 00c8 2968     		ldr	r1, [r5]
 1540 00ca 059B     		ldr	r3, [sp, #20]
 1541 00cc 4C31     		adds	r1, r1, #76
 1542 00ce A86B     		ldr	r0, [r5, #56]
 1543 00d0 FFF7FEFF 		bl	HAL_DMA_Start_IT
 1544 00d4 0028     		cmp	r0, #0
 1545 00d6 DCD0     		beq	.L158
 1546 00d8 0120     		movs	r0, #1
 1547 00da E3E7     		b	.L147
 1548              	.L172:
 1549 00dc B4F5805F 		cmp	r4, #4096
 1550 00e0 12D1     		bne	.L173
 1551 00e2 2B6B     		ldr	r3, [r5, #48]
 1552 00e4 2749     		ldr	r1, .L174
 1553 00e6 D963     		str	r1, [r3, #60]
 1554 00e8 2B6B     		ldr	r3, [r5, #48]
 1555 00ea 2749     		ldr	r1, .L174+4
ARM GAS  /tmp/cc01cbqV.s 			page 27


 1556 00ec 1964     		str	r1, [r3, #64]
 1557 00ee 2B6B     		ldr	r3, [r5, #48]
 1558 00f0 2649     		ldr	r1, .L174+8
 1559 00f2 D964     		str	r1, [r3, #76]
 1560 00f4 2968     		ldr	r1, [r5]
 1561 00f6 059B     		ldr	r3, [sp, #20]
 1562 00f8 4C31     		adds	r1, r1, #76
 1563 00fa 286B     		ldr	r0, [r5, #48]
 1564 00fc FFF7FEFF 		bl	HAL_DMA_Start_IT
 1565 0100 0028     		cmp	r0, #0
 1566 0102 C6D0     		beq	.L158
 1567 0104 0120     		movs	r0, #1
 1568 0106 CDE7     		b	.L147
 1569              	.L173:
 1570 0108 0120     		movs	r0, #1
 1571 010a CBE7     		b	.L147
 1572              	.L152:
 1573 010c 6B6A     		ldr	r3, [r5, #36]
 1574 010e 1D49     		ldr	r1, .L174
 1575 0110 D963     		str	r1, [r3, #60]
 1576 0112 6B6A     		ldr	r3, [r5, #36]
 1577 0114 1C49     		ldr	r1, .L174+4
 1578 0116 1964     		str	r1, [r3, #64]
 1579 0118 6B6A     		ldr	r3, [r5, #36]
 1580 011a 1C49     		ldr	r1, .L174+8
 1581 011c D964     		str	r1, [r3, #76]
 1582 011e 2968     		ldr	r1, [r5]
 1583 0120 059B     		ldr	r3, [sp, #20]
 1584 0122 4C31     		adds	r1, r1, #76
 1585 0124 686A     		ldr	r0, [r5, #36]
 1586 0126 FFF7FEFF 		bl	HAL_DMA_Start_IT
 1587 012a 0028     		cmp	r0, #0
 1588 012c B1D0     		beq	.L158
 1589 012e 0120     		movs	r0, #1
 1590 0130 B8E7     		b	.L147
 1591              	.L150:
 1592 0132 EB6A     		ldr	r3, [r5, #44]
 1593 0134 1349     		ldr	r1, .L174
 1594 0136 D963     		str	r1, [r3, #60]
 1595 0138 EB6A     		ldr	r3, [r5, #44]
 1596 013a 1349     		ldr	r1, .L174+4
 1597 013c 1964     		str	r1, [r3, #64]
 1598 013e EB6A     		ldr	r3, [r5, #44]
 1599 0140 1249     		ldr	r1, .L174+8
 1600 0142 D964     		str	r1, [r3, #76]
 1601 0144 2968     		ldr	r1, [r5]
 1602 0146 059B     		ldr	r3, [sp, #20]
 1603 0148 4C31     		adds	r1, r1, #76
 1604 014a E86A     		ldr	r0, [r5, #44]
 1605 014c FFF7FEFF 		bl	HAL_DMA_Start_IT
 1606 0150 0028     		cmp	r0, #0
 1607 0152 9ED0     		beq	.L158
 1608 0154 0120     		movs	r0, #1
 1609 0156 A5E7     		b	.L147
 1610              	.L155:
 1611 0158 6B6B     		ldr	r3, [r5, #52]
 1612 015a 1149     		ldr	r1, .L174+28
ARM GAS  /tmp/cc01cbqV.s 			page 28


 1613 015c D963     		str	r1, [r3, #60]
 1614 015e 6B6B     		ldr	r3, [r5, #52]
 1615 0160 1049     		ldr	r1, .L174+32
 1616 0162 1964     		str	r1, [r3, #64]
 1617 0164 6B6B     		ldr	r3, [r5, #52]
 1618 0166 0949     		ldr	r1, .L174+8
 1619 0168 D964     		str	r1, [r3, #76]
 1620 016a 2968     		ldr	r1, [r5]
 1621 016c 059B     		ldr	r3, [sp, #20]
 1622 016e 4C31     		adds	r1, r1, #76
 1623 0170 686B     		ldr	r0, [r5, #52]
 1624 0172 FFF7FEFF 		bl	HAL_DMA_Start_IT
 1625 0176 0028     		cmp	r0, #0
 1626 0178 8BD0     		beq	.L158
 1627 017a 0120     		movs	r0, #1
 1628 017c 92E7     		b	.L147
 1629              	.L171:
 1630 017e 0120     		movs	r0, #1
 1631 0180 90E7     		b	.L147
 1632              	.L175:
 1633 0182 00BF     		.align	2
 1634              	.L174:
 1635 0184 00000000 		.word	TIM_DMACaptureCplt
 1636 0188 00000000 		.word	TIM_DMACaptureHalfCplt
 1637 018c 00000000 		.word	TIM_DMAError
 1638 0190 00000000 		.word	TIM_DMAPeriodElapsedCplt
 1639 0194 00000000 		.word	TIM_DMAPeriodElapsedHalfCplt
 1640 0198 00000000 		.word	TIM_DMATriggerCplt
 1641 019c 00000000 		.word	TIM_DMATriggerHalfCplt
 1642 01a0 00000000 		.word	TIMEx_DMACommutationCplt
 1643 01a4 00000000 		.word	TIMEx_DMACommutationHalfCplt
 1645              		.section	.text.HAL_TIM_DMABurst_ReadStart,"ax",%progbits
 1646              		.align	1
 1647              		.global	HAL_TIM_DMABurst_ReadStart
 1648              		.syntax unified
 1649              		.thumb
 1650              		.thumb_func
 1651              		.fpu fpv4-sp-d16
 1653              	HAL_TIM_DMABurst_ReadStart:
 1654              		@ args = 4, pretend = 0, frame = 0
 1655              		@ frame_needed = 0, uses_anonymous_args = 0
 1656 0000 30B5     		push	{r4, r5, lr}
 1657 0002 83B0     		sub	sp, sp, #12
 1658 0004 069D     		ldr	r5, [sp, #24]
 1659 0006 2C0A     		lsrs	r4, r5, #8
 1660 0008 0134     		adds	r4, r4, #1
 1661 000a 0194     		str	r4, [sp, #4]
 1662 000c 0095     		str	r5, [sp]
 1663 000e FFF7FEFF 		bl	HAL_TIM_DMABurst_MultiReadStart
 1664 0012 03B0     		add	sp, sp, #12
 1665              		@ sp needed
 1666 0014 30BD     		pop	{r4, r5, pc}
 1668              		.section	.text.HAL_TIM_DMABurst_ReadStop,"ax",%progbits
 1669              		.align	1
 1670              		.global	HAL_TIM_DMABurst_ReadStop
 1671              		.syntax unified
 1672              		.thumb
ARM GAS  /tmp/cc01cbqV.s 			page 29


 1673              		.thumb_func
 1674              		.fpu fpv4-sp-d16
 1676              	HAL_TIM_DMABurst_ReadStop:
 1677              		@ args = 0, pretend = 0, frame = 0
 1678              		@ frame_needed = 0, uses_anonymous_args = 0
 1679 0000 38B5     		push	{r3, r4, r5, lr}
 1680 0002 0546     		mov	r5, r0
 1681 0004 0C46     		mov	r4, r1
 1682 0006 B1F5006F 		cmp	r1, #2048
 1683 000a 33D0     		beq	.L179
 1684 000c 1BD8     		bhi	.L180
 1685 000e B1F5007F 		cmp	r1, #512
 1686 0012 2BD0     		beq	.L181
 1687 0014 B1F5806F 		cmp	r1, #1024
 1688 0018 03D1     		bne	.L190
 1689 001a 806A     		ldr	r0, [r0, #40]
 1690 001c FFF7FEFF 		bl	HAL_DMA_Abort_IT
 1691 0020 05E0     		b	.L188
 1692              	.L190:
 1693 0022 B1F5807F 		cmp	r1, #256
 1694 0026 0CD1     		bne	.L191
 1695 0028 006A     		ldr	r0, [r0, #32]
 1696 002a FFF7FEFF 		bl	HAL_DMA_Abort_IT
 1697              	.L188:
 1698 002e 2B68     		ldr	r3, [r5]
 1699 0030 D968     		ldr	r1, [r3, #12]
 1700 0032 21EA0404 		bic	r4, r1, r4
 1701 0036 DC60     		str	r4, [r3, #12]
 1702 0038 0123     		movs	r3, #1
 1703 003a 85F84630 		strb	r3, [r5, #70]
 1704 003e 0020     		movs	r0, #0
 1705              	.L184:
 1706 0040 38BD     		pop	{r3, r4, r5, pc}
 1707              	.L191:
 1708 0042 0120     		movs	r0, #1
 1709 0044 FCE7     		b	.L184
 1710              	.L180:
 1711 0046 B1F5005F 		cmp	r1, #8192
 1712 004a 17D0     		beq	.L185
 1713 004c B1F5804F 		cmp	r1, #16384
 1714 0050 03D1     		bne	.L192
 1715 0052 806B     		ldr	r0, [r0, #56]
 1716 0054 FFF7FEFF 		bl	HAL_DMA_Abort_IT
 1717 0058 E9E7     		b	.L188
 1718              	.L192:
 1719 005a B1F5805F 		cmp	r1, #4096
 1720 005e 03D1     		bne	.L193
 1721 0060 006B     		ldr	r0, [r0, #48]
 1722 0062 FFF7FEFF 		bl	HAL_DMA_Abort_IT
 1723 0066 E2E7     		b	.L188
 1724              	.L193:
 1725 0068 0120     		movs	r0, #1
 1726 006a E9E7     		b	.L184
 1727              	.L181:
 1728 006c 406A     		ldr	r0, [r0, #36]
 1729 006e FFF7FEFF 		bl	HAL_DMA_Abort_IT
 1730 0072 DCE7     		b	.L188
ARM GAS  /tmp/cc01cbqV.s 			page 30


 1731              	.L179:
 1732 0074 C06A     		ldr	r0, [r0, #44]
 1733 0076 FFF7FEFF 		bl	HAL_DMA_Abort_IT
 1734 007a D8E7     		b	.L188
 1735              	.L185:
 1736 007c 406B     		ldr	r0, [r0, #52]
 1737 007e FFF7FEFF 		bl	HAL_DMA_Abort_IT
 1738 0082 D4E7     		b	.L188
 1740              		.section	.text.HAL_TIM_GenerateEvent,"ax",%progbits
 1741              		.align	1
 1742              		.global	HAL_TIM_GenerateEvent
 1743              		.syntax unified
 1744              		.thumb
 1745              		.thumb_func
 1746              		.fpu fpv4-sp-d16
 1748              	HAL_TIM_GenerateEvent:
 1749              		@ args = 0, pretend = 0, frame = 0
 1750              		@ frame_needed = 0, uses_anonymous_args = 0
 1751              		@ link register save eliminated.
 1752 0000 90F83C30 		ldrb	r3, [r0, #60]	@ zero_extendqisi2
 1753 0004 012B     		cmp	r3, #1
 1754 0006 0ED0     		beq	.L196
 1755 0008 0123     		movs	r3, #1
 1756 000a 80F83C30 		strb	r3, [r0, #60]
 1757 000e 0222     		movs	r2, #2
 1758 0010 80F83D20 		strb	r2, [r0, #61]
 1759 0014 0268     		ldr	r2, [r0]
 1760 0016 5161     		str	r1, [r2, #20]
 1761 0018 80F83D30 		strb	r3, [r0, #61]
 1762 001c 0023     		movs	r3, #0
 1763 001e 80F83C30 		strb	r3, [r0, #60]
 1764 0022 1846     		mov	r0, r3
 1765 0024 7047     		bx	lr
 1766              	.L196:
 1767 0026 0220     		movs	r0, #2
 1768 0028 7047     		bx	lr
 1770              		.section	.text.HAL_TIM_ConfigTI1Input,"ax",%progbits
 1771              		.align	1
 1772              		.global	HAL_TIM_ConfigTI1Input
 1773              		.syntax unified
 1774              		.thumb
 1775              		.thumb_func
 1776              		.fpu fpv4-sp-d16
 1778              	HAL_TIM_ConfigTI1Input:
 1779              		@ args = 0, pretend = 0, frame = 0
 1780              		@ frame_needed = 0, uses_anonymous_args = 0
 1781              		@ link register save eliminated.
 1782 0000 0268     		ldr	r2, [r0]
 1783 0002 5368     		ldr	r3, [r2, #4]
 1784 0004 23F08003 		bic	r3, r3, #128
 1785 0008 0B43     		orrs	r3, r3, r1
 1786 000a 5360     		str	r3, [r2, #4]
 1787 000c 0020     		movs	r0, #0
 1788 000e 7047     		bx	lr
 1790              		.section	.text.HAL_TIM_ReadCapturedValue,"ax",%progbits
 1791              		.align	1
 1792              		.global	HAL_TIM_ReadCapturedValue
ARM GAS  /tmp/cc01cbqV.s 			page 31


 1793              		.syntax unified
 1794              		.thumb
 1795              		.thumb_func
 1796              		.fpu fpv4-sp-d16
 1798              	HAL_TIM_ReadCapturedValue:
 1799              		@ args = 0, pretend = 0, frame = 0
 1800              		@ frame_needed = 0, uses_anonymous_args = 0
 1801              		@ link register save eliminated.
 1802 0000 0C29     		cmp	r1, #12
 1803 0002 14D8     		bhi	.L205
 1804 0004 DFE801F0 		tbb	[pc, r1]
 1805              	.L201:
 1806 0008 07       		.byte	(.L204-.L201)/2
 1807 0009 13       		.byte	(.L205-.L201)/2
 1808 000a 13       		.byte	(.L205-.L201)/2
 1809 000b 13       		.byte	(.L205-.L201)/2
 1810 000c 0A       		.byte	(.L203-.L201)/2
 1811 000d 13       		.byte	(.L205-.L201)/2
 1812 000e 13       		.byte	(.L205-.L201)/2
 1813 000f 13       		.byte	(.L205-.L201)/2
 1814 0010 0D       		.byte	(.L202-.L201)/2
 1815 0011 13       		.byte	(.L205-.L201)/2
 1816 0012 13       		.byte	(.L205-.L201)/2
 1817 0013 13       		.byte	(.L205-.L201)/2
 1818 0014 10       		.byte	(.L200-.L201)/2
 1819 0015 00       		.p2align 1
 1820              	.L204:
 1821 0016 0368     		ldr	r3, [r0]
 1822 0018 586B     		ldr	r0, [r3, #52]
 1823 001a 7047     		bx	lr
 1824              	.L203:
 1825 001c 0368     		ldr	r3, [r0]
 1826 001e 986B     		ldr	r0, [r3, #56]
 1827 0020 7047     		bx	lr
 1828              	.L202:
 1829 0022 0368     		ldr	r3, [r0]
 1830 0024 D86B     		ldr	r0, [r3, #60]
 1831 0026 7047     		bx	lr
 1832              	.L200:
 1833 0028 0368     		ldr	r3, [r0]
 1834 002a 186C     		ldr	r0, [r3, #64]
 1835 002c 7047     		bx	lr
 1836              	.L205:
 1837 002e 0020     		movs	r0, #0
 1838 0030 7047     		bx	lr
 1840              		.section	.text.HAL_TIM_PeriodElapsedCallback,"ax",%progbits
 1841              		.align	1
 1842              		.weak	HAL_TIM_PeriodElapsedCallback
 1843              		.syntax unified
 1844              		.thumb
 1845              		.thumb_func
 1846              		.fpu fpv4-sp-d16
 1848              	HAL_TIM_PeriodElapsedCallback:
 1849              		@ args = 0, pretend = 0, frame = 0
 1850              		@ frame_needed = 0, uses_anonymous_args = 0
 1851              		@ link register save eliminated.
 1852 0000 7047     		bx	lr
ARM GAS  /tmp/cc01cbqV.s 			page 32


 1854              		.section	.text.TIM_DMAPeriodElapsedCplt,"ax",%progbits
 1855              		.align	1
 1856              		.syntax unified
 1857              		.thumb
 1858              		.thumb_func
 1859              		.fpu fpv4-sp-d16
 1861              	TIM_DMAPeriodElapsedCplt:
 1862              		@ args = 0, pretend = 0, frame = 0
 1863              		@ frame_needed = 0, uses_anonymous_args = 0
 1864 0000 08B5     		push	{r3, lr}
 1865 0002 806B     		ldr	r0, [r0, #56]
 1866 0004 036A     		ldr	r3, [r0, #32]
 1867 0006 DB69     		ldr	r3, [r3, #28]
 1868 0008 13B9     		cbnz	r3, .L208
 1869 000a 0123     		movs	r3, #1
 1870 000c 80F83D30 		strb	r3, [r0, #61]
 1871              	.L208:
 1872 0010 FFF7FEFF 		bl	HAL_TIM_PeriodElapsedCallback
 1873 0014 08BD     		pop	{r3, pc}
 1875              		.section	.text.HAL_TIM_PeriodElapsedHalfCpltCallback,"ax",%progbits
 1876              		.align	1
 1877              		.weak	HAL_TIM_PeriodElapsedHalfCpltCallback
 1878              		.syntax unified
 1879              		.thumb
 1880              		.thumb_func
 1881              		.fpu fpv4-sp-d16
 1883              	HAL_TIM_PeriodElapsedHalfCpltCallback:
 1884              		@ args = 0, pretend = 0, frame = 0
 1885              		@ frame_needed = 0, uses_anonymous_args = 0
 1886              		@ link register save eliminated.
 1887 0000 7047     		bx	lr
 1889              		.section	.text.TIM_DMAPeriodElapsedHalfCplt,"ax",%progbits
 1890              		.align	1
 1891              		.syntax unified
 1892              		.thumb
 1893              		.thumb_func
 1894              		.fpu fpv4-sp-d16
 1896              	TIM_DMAPeriodElapsedHalfCplt:
 1897              		@ args = 0, pretend = 0, frame = 0
 1898              		@ frame_needed = 0, uses_anonymous_args = 0
 1899 0000 08B5     		push	{r3, lr}
 1900 0002 806B     		ldr	r0, [r0, #56]
 1901 0004 FFF7FEFF 		bl	HAL_TIM_PeriodElapsedHalfCpltCallback
 1902 0008 08BD     		pop	{r3, pc}
 1904              		.section	.text.HAL_TIM_OC_DelayElapsedCallback,"ax",%progbits
 1905              		.align	1
 1906              		.weak	HAL_TIM_OC_DelayElapsedCallback
 1907              		.syntax unified
 1908              		.thumb
 1909              		.thumb_func
 1910              		.fpu fpv4-sp-d16
 1912              	HAL_TIM_OC_DelayElapsedCallback:
 1913              		@ args = 0, pretend = 0, frame = 0
 1914              		@ frame_needed = 0, uses_anonymous_args = 0
 1915              		@ link register save eliminated.
 1916 0000 7047     		bx	lr
 1918              		.section	.text.HAL_TIM_IC_CaptureCallback,"ax",%progbits
ARM GAS  /tmp/cc01cbqV.s 			page 33


 1919              		.align	1
 1920              		.weak	HAL_TIM_IC_CaptureCallback
 1921              		.syntax unified
 1922              		.thumb
 1923              		.thumb_func
 1924              		.fpu fpv4-sp-d16
 1926              	HAL_TIM_IC_CaptureCallback:
 1927              		@ args = 0, pretend = 0, frame = 0
 1928              		@ frame_needed = 0, uses_anonymous_args = 0
 1929              		@ link register save eliminated.
 1930 0000 7047     		bx	lr
 1932              		.section	.text.TIM_DMACaptureCplt,"ax",%progbits
 1933              		.align	1
 1934              		.global	TIM_DMACaptureCplt
 1935              		.syntax unified
 1936              		.thumb
 1937              		.thumb_func
 1938              		.fpu fpv4-sp-d16
 1940              	TIM_DMACaptureCplt:
 1941              		@ args = 0, pretend = 0, frame = 0
 1942              		@ frame_needed = 0, uses_anonymous_args = 0
 1943 0000 10B5     		push	{r4, lr}
 1944 0002 846B     		ldr	r4, [r0, #56]
 1945 0004 636A     		ldr	r3, [r4, #36]
 1946 0006 8342     		cmp	r3, r0
 1947 0008 0ED0     		beq	.L221
 1948 000a A36A     		ldr	r3, [r4, #40]
 1949 000c 8342     		cmp	r3, r0
 1950 000e 16D0     		beq	.L222
 1951 0010 E36A     		ldr	r3, [r4, #44]
 1952 0012 8342     		cmp	r3, r0
 1953 0014 1ED0     		beq	.L223
 1954 0016 236B     		ldr	r3, [r4, #48]
 1955 0018 8342     		cmp	r3, r0
 1956 001a 26D0     		beq	.L224
 1957              	.L217:
 1958 001c 2046     		mov	r0, r4
 1959 001e FFF7FEFF 		bl	HAL_TIM_IC_CaptureCallback
 1960 0022 0023     		movs	r3, #0
 1961 0024 2377     		strb	r3, [r4, #28]
 1962 0026 10BD     		pop	{r4, pc}
 1963              	.L221:
 1964 0028 0123     		movs	r3, #1
 1965 002a 2377     		strb	r3, [r4, #28]
 1966 002c C369     		ldr	r3, [r0, #28]
 1967 002e 002B     		cmp	r3, #0
 1968 0030 F4D1     		bne	.L217
 1969 0032 0123     		movs	r3, #1
 1970 0034 84F83E30 		strb	r3, [r4, #62]
 1971 0038 84F84230 		strb	r3, [r4, #66]
 1972 003c EEE7     		b	.L217
 1973              	.L222:
 1974 003e 0223     		movs	r3, #2
 1975 0040 2377     		strb	r3, [r4, #28]
 1976 0042 C369     		ldr	r3, [r0, #28]
 1977 0044 002B     		cmp	r3, #0
 1978 0046 E9D1     		bne	.L217
ARM GAS  /tmp/cc01cbqV.s 			page 34


 1979 0048 0123     		movs	r3, #1
 1980 004a 84F83F30 		strb	r3, [r4, #63]
 1981 004e 84F84330 		strb	r3, [r4, #67]
 1982 0052 E3E7     		b	.L217
 1983              	.L223:
 1984 0054 0423     		movs	r3, #4
 1985 0056 2377     		strb	r3, [r4, #28]
 1986 0058 C369     		ldr	r3, [r0, #28]
 1987 005a 002B     		cmp	r3, #0
 1988 005c DED1     		bne	.L217
 1989 005e 0123     		movs	r3, #1
 1990 0060 84F84030 		strb	r3, [r4, #64]
 1991 0064 84F84430 		strb	r3, [r4, #68]
 1992 0068 D8E7     		b	.L217
 1993              	.L224:
 1994 006a 0823     		movs	r3, #8
 1995 006c 2377     		strb	r3, [r4, #28]
 1996 006e C369     		ldr	r3, [r0, #28]
 1997 0070 002B     		cmp	r3, #0
 1998 0072 D3D1     		bne	.L217
 1999 0074 0123     		movs	r3, #1
 2000 0076 84F84130 		strb	r3, [r4, #65]
 2001 007a 84F84530 		strb	r3, [r4, #69]
 2002 007e CDE7     		b	.L217
 2004              		.section	.text.HAL_TIM_IC_CaptureHalfCpltCallback,"ax",%progbits
 2005              		.align	1
 2006              		.weak	HAL_TIM_IC_CaptureHalfCpltCallback
 2007              		.syntax unified
 2008              		.thumb
 2009              		.thumb_func
 2010              		.fpu fpv4-sp-d16
 2012              	HAL_TIM_IC_CaptureHalfCpltCallback:
 2013              		@ args = 0, pretend = 0, frame = 0
 2014              		@ frame_needed = 0, uses_anonymous_args = 0
 2015              		@ link register save eliminated.
 2016 0000 7047     		bx	lr
 2018              		.section	.text.TIM_DMACaptureHalfCplt,"ax",%progbits
 2019              		.align	1
 2020              		.global	TIM_DMACaptureHalfCplt
 2021              		.syntax unified
 2022              		.thumb
 2023              		.thumb_func
 2024              		.fpu fpv4-sp-d16
 2026              	TIM_DMACaptureHalfCplt:
 2027              		@ args = 0, pretend = 0, frame = 0
 2028              		@ frame_needed = 0, uses_anonymous_args = 0
 2029 0000 10B5     		push	{r4, lr}
 2030 0002 846B     		ldr	r4, [r0, #56]
 2031 0004 636A     		ldr	r3, [r4, #36]
 2032 0006 8342     		cmp	r3, r0
 2033 0008 0BD0     		beq	.L232
 2034 000a A36A     		ldr	r3, [r4, #40]
 2035 000c 8342     		cmp	r3, r0
 2036 000e 10D0     		beq	.L233
 2037 0010 E36A     		ldr	r3, [r4, #44]
 2038 0012 8342     		cmp	r3, r0
 2039 0014 10D0     		beq	.L234
ARM GAS  /tmp/cc01cbqV.s 			page 35


 2040 0016 236B     		ldr	r3, [r4, #48]
 2041 0018 8342     		cmp	r3, r0
 2042 001a 04D1     		bne	.L228
 2043 001c 0823     		movs	r3, #8
 2044 001e 2377     		strb	r3, [r4, #28]
 2045 0020 01E0     		b	.L228
 2046              	.L232:
 2047 0022 0123     		movs	r3, #1
 2048 0024 2377     		strb	r3, [r4, #28]
 2049              	.L228:
 2050 0026 2046     		mov	r0, r4
 2051 0028 FFF7FEFF 		bl	HAL_TIM_IC_CaptureHalfCpltCallback
 2052 002c 0023     		movs	r3, #0
 2053 002e 2377     		strb	r3, [r4, #28]
 2054 0030 10BD     		pop	{r4, pc}
 2055              	.L233:
 2056 0032 0223     		movs	r3, #2
 2057 0034 2377     		strb	r3, [r4, #28]
 2058 0036 F6E7     		b	.L228
 2059              	.L234:
 2060 0038 0423     		movs	r3, #4
 2061 003a 2377     		strb	r3, [r4, #28]
 2062 003c F3E7     		b	.L228
 2064              		.section	.text.HAL_TIM_PWM_PulseFinishedCallback,"ax",%progbits
 2065              		.align	1
 2066              		.weak	HAL_TIM_PWM_PulseFinishedCallback
 2067              		.syntax unified
 2068              		.thumb
 2069              		.thumb_func
 2070              		.fpu fpv4-sp-d16
 2072              	HAL_TIM_PWM_PulseFinishedCallback:
 2073              		@ args = 0, pretend = 0, frame = 0
 2074              		@ frame_needed = 0, uses_anonymous_args = 0
 2075              		@ link register save eliminated.
 2076 0000 7047     		bx	lr
 2078              		.section	.text.TIM_DMADelayPulseCplt,"ax",%progbits
 2079              		.align	1
 2080              		.syntax unified
 2081              		.thumb
 2082              		.thumb_func
 2083              		.fpu fpv4-sp-d16
 2085              	TIM_DMADelayPulseCplt:
 2086              		@ args = 0, pretend = 0, frame = 0
 2087              		@ frame_needed = 0, uses_anonymous_args = 0
 2088 0000 10B5     		push	{r4, lr}
 2089 0002 846B     		ldr	r4, [r0, #56]
 2090 0004 636A     		ldr	r3, [r4, #36]
 2091 0006 8342     		cmp	r3, r0
 2092 0008 0ED0     		beq	.L242
 2093 000a A36A     		ldr	r3, [r4, #40]
 2094 000c 8342     		cmp	r3, r0
 2095 000e 14D0     		beq	.L243
 2096 0010 E36A     		ldr	r3, [r4, #44]
 2097 0012 8342     		cmp	r3, r0
 2098 0014 1AD0     		beq	.L244
 2099 0016 236B     		ldr	r3, [r4, #48]
 2100 0018 8342     		cmp	r3, r0
ARM GAS  /tmp/cc01cbqV.s 			page 36


 2101 001a 20D0     		beq	.L245
 2102              	.L238:
 2103 001c 2046     		mov	r0, r4
 2104 001e FFF7FEFF 		bl	HAL_TIM_PWM_PulseFinishedCallback
 2105 0022 0023     		movs	r3, #0
 2106 0024 2377     		strb	r3, [r4, #28]
 2107 0026 10BD     		pop	{r4, pc}
 2108              	.L242:
 2109 0028 0123     		movs	r3, #1
 2110 002a 2377     		strb	r3, [r4, #28]
 2111 002c C369     		ldr	r3, [r0, #28]
 2112 002e 002B     		cmp	r3, #0
 2113 0030 F4D1     		bne	.L238
 2114 0032 0123     		movs	r3, #1
 2115 0034 84F83E30 		strb	r3, [r4, #62]
 2116 0038 F0E7     		b	.L238
 2117              	.L243:
 2118 003a 0223     		movs	r3, #2
 2119 003c 2377     		strb	r3, [r4, #28]
 2120 003e C369     		ldr	r3, [r0, #28]
 2121 0040 002B     		cmp	r3, #0
 2122 0042 EBD1     		bne	.L238
 2123 0044 0123     		movs	r3, #1
 2124 0046 84F83F30 		strb	r3, [r4, #63]
 2125 004a E7E7     		b	.L238
 2126              	.L244:
 2127 004c 0423     		movs	r3, #4
 2128 004e 2377     		strb	r3, [r4, #28]
 2129 0050 C369     		ldr	r3, [r0, #28]
 2130 0052 002B     		cmp	r3, #0
 2131 0054 E2D1     		bne	.L238
 2132 0056 0123     		movs	r3, #1
 2133 0058 84F84030 		strb	r3, [r4, #64]
 2134 005c DEE7     		b	.L238
 2135              	.L245:
 2136 005e 0823     		movs	r3, #8
 2137 0060 2377     		strb	r3, [r4, #28]
 2138 0062 C369     		ldr	r3, [r0, #28]
 2139 0064 002B     		cmp	r3, #0
 2140 0066 D9D1     		bne	.L238
 2141 0068 0123     		movs	r3, #1
 2142 006a 84F84130 		strb	r3, [r4, #65]
 2143 006e D5E7     		b	.L238
 2145              		.section	.text.HAL_TIM_PWM_PulseFinishedHalfCpltCallback,"ax",%progbits
 2146              		.align	1
 2147              		.weak	HAL_TIM_PWM_PulseFinishedHalfCpltCallback
 2148              		.syntax unified
 2149              		.thumb
 2150              		.thumb_func
 2151              		.fpu fpv4-sp-d16
 2153              	HAL_TIM_PWM_PulseFinishedHalfCpltCallback:
 2154              		@ args = 0, pretend = 0, frame = 0
 2155              		@ frame_needed = 0, uses_anonymous_args = 0
 2156              		@ link register save eliminated.
 2157 0000 7047     		bx	lr
 2159              		.section	.text.TIM_DMADelayPulseHalfCplt,"ax",%progbits
 2160              		.align	1
ARM GAS  /tmp/cc01cbqV.s 			page 37


 2161              		.global	TIM_DMADelayPulseHalfCplt
 2162              		.syntax unified
 2163              		.thumb
 2164              		.thumb_func
 2165              		.fpu fpv4-sp-d16
 2167              	TIM_DMADelayPulseHalfCplt:
 2168              		@ args = 0, pretend = 0, frame = 0
 2169              		@ frame_needed = 0, uses_anonymous_args = 0
 2170 0000 10B5     		push	{r4, lr}
 2171 0002 846B     		ldr	r4, [r0, #56]
 2172 0004 636A     		ldr	r3, [r4, #36]
 2173 0006 8342     		cmp	r3, r0
 2174 0008 0BD0     		beq	.L253
 2175 000a A36A     		ldr	r3, [r4, #40]
 2176 000c 8342     		cmp	r3, r0
 2177 000e 10D0     		beq	.L254
 2178 0010 E36A     		ldr	r3, [r4, #44]
 2179 0012 8342     		cmp	r3, r0
 2180 0014 10D0     		beq	.L255
 2181 0016 236B     		ldr	r3, [r4, #48]
 2182 0018 8342     		cmp	r3, r0
 2183 001a 04D1     		bne	.L249
 2184 001c 0823     		movs	r3, #8
 2185 001e 2377     		strb	r3, [r4, #28]
 2186 0020 01E0     		b	.L249
 2187              	.L253:
 2188 0022 0123     		movs	r3, #1
 2189 0024 2377     		strb	r3, [r4, #28]
 2190              	.L249:
 2191 0026 2046     		mov	r0, r4
 2192 0028 FFF7FEFF 		bl	HAL_TIM_PWM_PulseFinishedHalfCpltCallback
 2193 002c 0023     		movs	r3, #0
 2194 002e 2377     		strb	r3, [r4, #28]
 2195 0030 10BD     		pop	{r4, pc}
 2196              	.L254:
 2197 0032 0223     		movs	r3, #2
 2198 0034 2377     		strb	r3, [r4, #28]
 2199 0036 F6E7     		b	.L249
 2200              	.L255:
 2201 0038 0423     		movs	r3, #4
 2202 003a 2377     		strb	r3, [r4, #28]
 2203 003c F3E7     		b	.L249
 2205              		.section	.text.HAL_TIM_TriggerCallback,"ax",%progbits
 2206              		.align	1
 2207              		.weak	HAL_TIM_TriggerCallback
 2208              		.syntax unified
 2209              		.thumb
 2210              		.thumb_func
 2211              		.fpu fpv4-sp-d16
 2213              	HAL_TIM_TriggerCallback:
 2214              		@ args = 0, pretend = 0, frame = 0
 2215              		@ frame_needed = 0, uses_anonymous_args = 0
 2216              		@ link register save eliminated.
 2217 0000 7047     		bx	lr
 2219              		.section	.text.HAL_TIM_IRQHandler,"ax",%progbits
 2220              		.align	1
 2221              		.global	HAL_TIM_IRQHandler
ARM GAS  /tmp/cc01cbqV.s 			page 38


 2222              		.syntax unified
 2223              		.thumb
 2224              		.thumb_func
 2225              		.fpu fpv4-sp-d16
 2227              	HAL_TIM_IRQHandler:
 2228              		@ args = 0, pretend = 0, frame = 0
 2229              		@ frame_needed = 0, uses_anonymous_args = 0
 2230 0000 10B5     		push	{r4, lr}
 2231 0002 0446     		mov	r4, r0
 2232 0004 0368     		ldr	r3, [r0]
 2233 0006 1A69     		ldr	r2, [r3, #16]
 2234 0008 12F0020F 		tst	r2, #2
 2235 000c 11D0     		beq	.L258
 2236 000e DA68     		ldr	r2, [r3, #12]
 2237 0010 12F0020F 		tst	r2, #2
 2238 0014 0DD0     		beq	.L258
 2239 0016 6FF00202 		mvn	r2, #2
 2240 001a 1A61     		str	r2, [r3, #16]
 2241 001c 0123     		movs	r3, #1
 2242 001e 0377     		strb	r3, [r0, #28]
 2243 0020 0368     		ldr	r3, [r0]
 2244 0022 9B69     		ldr	r3, [r3, #24]
 2245 0024 13F0030F 		tst	r3, #3
 2246 0028 70D0     		beq	.L259
 2247 002a FFF7FEFF 		bl	HAL_TIM_IC_CaptureCallback
 2248              	.L260:
 2249 002e 0023     		movs	r3, #0
 2250 0030 2377     		strb	r3, [r4, #28]
 2251              	.L258:
 2252 0032 2368     		ldr	r3, [r4]
 2253 0034 1A69     		ldr	r2, [r3, #16]
 2254 0036 12F0040F 		tst	r2, #4
 2255 003a 12D0     		beq	.L261
 2256 003c DA68     		ldr	r2, [r3, #12]
 2257 003e 12F0040F 		tst	r2, #4
 2258 0042 0ED0     		beq	.L261
 2259 0044 6FF00402 		mvn	r2, #4
 2260 0048 1A61     		str	r2, [r3, #16]
 2261 004a 0223     		movs	r3, #2
 2262 004c 2377     		strb	r3, [r4, #28]
 2263 004e 2368     		ldr	r3, [r4]
 2264 0050 9B69     		ldr	r3, [r3, #24]
 2265 0052 13F4407F 		tst	r3, #768
 2266 0056 5FD0     		beq	.L262
 2267 0058 2046     		mov	r0, r4
 2268 005a FFF7FEFF 		bl	HAL_TIM_IC_CaptureCallback
 2269              	.L263:
 2270 005e 0023     		movs	r3, #0
 2271 0060 2377     		strb	r3, [r4, #28]
 2272              	.L261:
 2273 0062 2368     		ldr	r3, [r4]
 2274 0064 1A69     		ldr	r2, [r3, #16]
 2275 0066 12F0080F 		tst	r2, #8
 2276 006a 12D0     		beq	.L264
 2277 006c DA68     		ldr	r2, [r3, #12]
 2278 006e 12F0080F 		tst	r2, #8
 2279 0072 0ED0     		beq	.L264
ARM GAS  /tmp/cc01cbqV.s 			page 39


 2280 0074 6FF00802 		mvn	r2, #8
 2281 0078 1A61     		str	r2, [r3, #16]
 2282 007a 0423     		movs	r3, #4
 2283 007c 2377     		strb	r3, [r4, #28]
 2284 007e 2368     		ldr	r3, [r4]
 2285 0080 DB69     		ldr	r3, [r3, #28]
 2286 0082 13F0030F 		tst	r3, #3
 2287 0086 4ED0     		beq	.L265
 2288 0088 2046     		mov	r0, r4
 2289 008a FFF7FEFF 		bl	HAL_TIM_IC_CaptureCallback
 2290              	.L266:
 2291 008e 0023     		movs	r3, #0
 2292 0090 2377     		strb	r3, [r4, #28]
 2293              	.L264:
 2294 0092 2368     		ldr	r3, [r4]
 2295 0094 1A69     		ldr	r2, [r3, #16]
 2296 0096 12F0100F 		tst	r2, #16
 2297 009a 12D0     		beq	.L267
 2298 009c DA68     		ldr	r2, [r3, #12]
 2299 009e 12F0100F 		tst	r2, #16
 2300 00a2 0ED0     		beq	.L267
 2301 00a4 6FF01002 		mvn	r2, #16
 2302 00a8 1A61     		str	r2, [r3, #16]
 2303 00aa 0823     		movs	r3, #8
 2304 00ac 2377     		strb	r3, [r4, #28]
 2305 00ae 2368     		ldr	r3, [r4]
 2306 00b0 DB69     		ldr	r3, [r3, #28]
 2307 00b2 13F4407F 		tst	r3, #768
 2308 00b6 3DD0     		beq	.L268
 2309 00b8 2046     		mov	r0, r4
 2310 00ba FFF7FEFF 		bl	HAL_TIM_IC_CaptureCallback
 2311              	.L269:
 2312 00be 0023     		movs	r3, #0
 2313 00c0 2377     		strb	r3, [r4, #28]
 2314              	.L267:
 2315 00c2 2368     		ldr	r3, [r4]
 2316 00c4 1A69     		ldr	r2, [r3, #16]
 2317 00c6 12F0010F 		tst	r2, #1
 2318 00ca 03D0     		beq	.L270
 2319 00cc DA68     		ldr	r2, [r3, #12]
 2320 00ce 12F0010F 		tst	r2, #1
 2321 00d2 36D1     		bne	.L275
 2322              	.L270:
 2323 00d4 2368     		ldr	r3, [r4]
 2324 00d6 1A69     		ldr	r2, [r3, #16]
 2325 00d8 12F0800F 		tst	r2, #128
 2326 00dc 03D0     		beq	.L271
 2327 00de DA68     		ldr	r2, [r3, #12]
 2328 00e0 12F0800F 		tst	r2, #128
 2329 00e4 34D1     		bne	.L276
 2330              	.L271:
 2331 00e6 2368     		ldr	r3, [r4]
 2332 00e8 1A69     		ldr	r2, [r3, #16]
 2333 00ea 12F0400F 		tst	r2, #64
 2334 00ee 03D0     		beq	.L272
 2335 00f0 DA68     		ldr	r2, [r3, #12]
 2336 00f2 12F0400F 		tst	r2, #64
ARM GAS  /tmp/cc01cbqV.s 			page 40


 2337 00f6 32D1     		bne	.L277
 2338              	.L272:
 2339 00f8 2368     		ldr	r3, [r4]
 2340 00fa 1A69     		ldr	r2, [r3, #16]
 2341 00fc 12F0200F 		tst	r2, #32
 2342 0100 03D0     		beq	.L257
 2343 0102 DA68     		ldr	r2, [r3, #12]
 2344 0104 12F0200F 		tst	r2, #32
 2345 0108 30D1     		bne	.L278
 2346              	.L257:
 2347 010a 10BD     		pop	{r4, pc}
 2348              	.L259:
 2349 010c FFF7FEFF 		bl	HAL_TIM_OC_DelayElapsedCallback
 2350 0110 2046     		mov	r0, r4
 2351 0112 FFF7FEFF 		bl	HAL_TIM_PWM_PulseFinishedCallback
 2352 0116 8AE7     		b	.L260
 2353              	.L262:
 2354 0118 2046     		mov	r0, r4
 2355 011a FFF7FEFF 		bl	HAL_TIM_OC_DelayElapsedCallback
 2356 011e 2046     		mov	r0, r4
 2357 0120 FFF7FEFF 		bl	HAL_TIM_PWM_PulseFinishedCallback
 2358 0124 9BE7     		b	.L263
 2359              	.L265:
 2360 0126 2046     		mov	r0, r4
 2361 0128 FFF7FEFF 		bl	HAL_TIM_OC_DelayElapsedCallback
 2362 012c 2046     		mov	r0, r4
 2363 012e FFF7FEFF 		bl	HAL_TIM_PWM_PulseFinishedCallback
 2364 0132 ACE7     		b	.L266
 2365              	.L268:
 2366 0134 2046     		mov	r0, r4
 2367 0136 FFF7FEFF 		bl	HAL_TIM_OC_DelayElapsedCallback
 2368 013a 2046     		mov	r0, r4
 2369 013c FFF7FEFF 		bl	HAL_TIM_PWM_PulseFinishedCallback
 2370 0140 BDE7     		b	.L269
 2371              	.L275:
 2372 0142 6FF00102 		mvn	r2, #1
 2373 0146 1A61     		str	r2, [r3, #16]
 2374 0148 2046     		mov	r0, r4
 2375 014a FFF7FEFF 		bl	HAL_TIM_PeriodElapsedCallback
 2376 014e C1E7     		b	.L270
 2377              	.L276:
 2378 0150 6FF08002 		mvn	r2, #128
 2379 0154 1A61     		str	r2, [r3, #16]
 2380 0156 2046     		mov	r0, r4
 2381 0158 FFF7FEFF 		bl	HAL_TIMEx_BreakCallback
 2382 015c C3E7     		b	.L271
 2383              	.L277:
 2384 015e 6FF04002 		mvn	r2, #64
 2385 0162 1A61     		str	r2, [r3, #16]
 2386 0164 2046     		mov	r0, r4
 2387 0166 FFF7FEFF 		bl	HAL_TIM_TriggerCallback
 2388 016a C5E7     		b	.L272
 2389              	.L278:
 2390 016c 6FF02002 		mvn	r2, #32
 2391 0170 1A61     		str	r2, [r3, #16]
 2392 0172 2046     		mov	r0, r4
 2393 0174 FFF7FEFF 		bl	HAL_TIMEx_CommutCallback
ARM GAS  /tmp/cc01cbqV.s 			page 41


 2394 0178 C7E7     		b	.L257
 2396              		.section	.text.TIM_DMATriggerCplt,"ax",%progbits
 2397              		.align	1
 2398              		.syntax unified
 2399              		.thumb
 2400              		.thumb_func
 2401              		.fpu fpv4-sp-d16
 2403              	TIM_DMATriggerCplt:
 2404              		@ args = 0, pretend = 0, frame = 0
 2405              		@ frame_needed = 0, uses_anonymous_args = 0
 2406 0000 08B5     		push	{r3, lr}
 2407 0002 806B     		ldr	r0, [r0, #56]
 2408 0004 836B     		ldr	r3, [r0, #56]
 2409 0006 DB69     		ldr	r3, [r3, #28]
 2410 0008 13B9     		cbnz	r3, .L280
 2411 000a 0123     		movs	r3, #1
 2412 000c 80F83D30 		strb	r3, [r0, #61]
 2413              	.L280:
 2414 0010 FFF7FEFF 		bl	HAL_TIM_TriggerCallback
 2415 0014 08BD     		pop	{r3, pc}
 2417              		.section	.text.HAL_TIM_TriggerHalfCpltCallback,"ax",%progbits
 2418              		.align	1
 2419              		.weak	HAL_TIM_TriggerHalfCpltCallback
 2420              		.syntax unified
 2421              		.thumb
 2422              		.thumb_func
 2423              		.fpu fpv4-sp-d16
 2425              	HAL_TIM_TriggerHalfCpltCallback:
 2426              		@ args = 0, pretend = 0, frame = 0
 2427              		@ frame_needed = 0, uses_anonymous_args = 0
 2428              		@ link register save eliminated.
 2429 0000 7047     		bx	lr
 2431              		.section	.text.TIM_DMATriggerHalfCplt,"ax",%progbits
 2432              		.align	1
 2433              		.syntax unified
 2434              		.thumb
 2435              		.thumb_func
 2436              		.fpu fpv4-sp-d16
 2438              	TIM_DMATriggerHalfCplt:
 2439              		@ args = 0, pretend = 0, frame = 0
 2440              		@ frame_needed = 0, uses_anonymous_args = 0
 2441 0000 08B5     		push	{r3, lr}
 2442 0002 806B     		ldr	r0, [r0, #56]
 2443 0004 FFF7FEFF 		bl	HAL_TIM_TriggerHalfCpltCallback
 2444 0008 08BD     		pop	{r3, pc}
 2446              		.section	.text.HAL_TIM_ErrorCallback,"ax",%progbits
 2447              		.align	1
 2448              		.weak	HAL_TIM_ErrorCallback
 2449              		.syntax unified
 2450              		.thumb
 2451              		.thumb_func
 2452              		.fpu fpv4-sp-d16
 2454              	HAL_TIM_ErrorCallback:
 2455              		@ args = 0, pretend = 0, frame = 0
 2456              		@ frame_needed = 0, uses_anonymous_args = 0
 2457              		@ link register save eliminated.
 2458 0000 7047     		bx	lr
ARM GAS  /tmp/cc01cbqV.s 			page 42


 2460              		.section	.text.TIM_DMAError,"ax",%progbits
 2461              		.align	1
 2462              		.global	TIM_DMAError
 2463              		.syntax unified
 2464              		.thumb
 2465              		.thumb_func
 2466              		.fpu fpv4-sp-d16
 2468              	TIM_DMAError:
 2469              		@ args = 0, pretend = 0, frame = 0
 2470              		@ frame_needed = 0, uses_anonymous_args = 0
 2471 0000 10B5     		push	{r4, lr}
 2472 0002 846B     		ldr	r4, [r0, #56]
 2473 0004 636A     		ldr	r3, [r4, #36]
 2474 0006 8342     		cmp	r3, r0
 2475 0008 0CD0     		beq	.L293
 2476 000a A36A     		ldr	r3, [r4, #40]
 2477 000c 8342     		cmp	r3, r0
 2478 000e 13D0     		beq	.L294
 2479 0010 E36A     		ldr	r3, [r4, #44]
 2480 0012 8342     		cmp	r3, r0
 2481 0014 16D0     		beq	.L295
 2482 0016 236B     		ldr	r3, [r4, #48]
 2483 0018 8342     		cmp	r3, r0
 2484 001a 19D0     		beq	.L296
 2485 001c 0123     		movs	r3, #1
 2486 001e 84F83D30 		strb	r3, [r4, #61]
 2487 0022 03E0     		b	.L288
 2488              	.L293:
 2489 0024 0123     		movs	r3, #1
 2490 0026 2377     		strb	r3, [r4, #28]
 2491 0028 84F83E30 		strb	r3, [r4, #62]
 2492              	.L288:
 2493 002c 2046     		mov	r0, r4
 2494 002e FFF7FEFF 		bl	HAL_TIM_ErrorCallback
 2495 0032 0023     		movs	r3, #0
 2496 0034 2377     		strb	r3, [r4, #28]
 2497 0036 10BD     		pop	{r4, pc}
 2498              	.L294:
 2499 0038 0223     		movs	r3, #2
 2500 003a 2377     		strb	r3, [r4, #28]
 2501 003c 0123     		movs	r3, #1
 2502 003e 84F83F30 		strb	r3, [r4, #63]
 2503 0042 F3E7     		b	.L288
 2504              	.L295:
 2505 0044 0423     		movs	r3, #4
 2506 0046 2377     		strb	r3, [r4, #28]
 2507 0048 0123     		movs	r3, #1
 2508 004a 84F84030 		strb	r3, [r4, #64]
 2509 004e EDE7     		b	.L288
 2510              	.L296:
 2511 0050 0823     		movs	r3, #8
 2512 0052 2377     		strb	r3, [r4, #28]
 2513 0054 0123     		movs	r3, #1
 2514 0056 84F84130 		strb	r3, [r4, #65]
 2515 005a E7E7     		b	.L288
 2517              		.section	.text.HAL_TIM_Base_GetState,"ax",%progbits
 2518              		.align	1
ARM GAS  /tmp/cc01cbqV.s 			page 43


 2519              		.global	HAL_TIM_Base_GetState
 2520              		.syntax unified
 2521              		.thumb
 2522              		.thumb_func
 2523              		.fpu fpv4-sp-d16
 2525              	HAL_TIM_Base_GetState:
 2526              		@ args = 0, pretend = 0, frame = 0
 2527              		@ frame_needed = 0, uses_anonymous_args = 0
 2528              		@ link register save eliminated.
 2529 0000 90F83D00 		ldrb	r0, [r0, #61]	@ zero_extendqisi2
 2530 0004 7047     		bx	lr
 2532              		.section	.text.HAL_TIM_OC_GetState,"ax",%progbits
 2533              		.align	1
 2534              		.global	HAL_TIM_OC_GetState
 2535              		.syntax unified
 2536              		.thumb
 2537              		.thumb_func
 2538              		.fpu fpv4-sp-d16
 2540              	HAL_TIM_OC_GetState:
 2541              		@ args = 0, pretend = 0, frame = 0
 2542              		@ frame_needed = 0, uses_anonymous_args = 0
 2543              		@ link register save eliminated.
 2544 0000 90F83D00 		ldrb	r0, [r0, #61]	@ zero_extendqisi2
 2545 0004 7047     		bx	lr
 2547              		.section	.text.HAL_TIM_PWM_GetState,"ax",%progbits
 2548              		.align	1
 2549              		.global	HAL_TIM_PWM_GetState
 2550              		.syntax unified
 2551              		.thumb
 2552              		.thumb_func
 2553              		.fpu fpv4-sp-d16
 2555              	HAL_TIM_PWM_GetState:
 2556              		@ args = 0, pretend = 0, frame = 0
 2557              		@ frame_needed = 0, uses_anonymous_args = 0
 2558              		@ link register save eliminated.
 2559 0000 90F83D00 		ldrb	r0, [r0, #61]	@ zero_extendqisi2
 2560 0004 7047     		bx	lr
 2562              		.section	.text.HAL_TIM_IC_GetState,"ax",%progbits
 2563              		.align	1
 2564              		.global	HAL_TIM_IC_GetState
 2565              		.syntax unified
 2566              		.thumb
 2567              		.thumb_func
 2568              		.fpu fpv4-sp-d16
 2570              	HAL_TIM_IC_GetState:
 2571              		@ args = 0, pretend = 0, frame = 0
 2572              		@ frame_needed = 0, uses_anonymous_args = 0
 2573              		@ link register save eliminated.
 2574 0000 90F83D00 		ldrb	r0, [r0, #61]	@ zero_extendqisi2
 2575 0004 7047     		bx	lr
 2577              		.section	.text.HAL_TIM_OnePulse_GetState,"ax",%progbits
 2578              		.align	1
 2579              		.global	HAL_TIM_OnePulse_GetState
 2580              		.syntax unified
 2581              		.thumb
 2582              		.thumb_func
 2583              		.fpu fpv4-sp-d16
ARM GAS  /tmp/cc01cbqV.s 			page 44


 2585              	HAL_TIM_OnePulse_GetState:
 2586              		@ args = 0, pretend = 0, frame = 0
 2587              		@ frame_needed = 0, uses_anonymous_args = 0
 2588              		@ link register save eliminated.
 2589 0000 90F83D00 		ldrb	r0, [r0, #61]	@ zero_extendqisi2
 2590 0004 7047     		bx	lr
 2592              		.section	.text.HAL_TIM_Encoder_GetState,"ax",%progbits
 2593              		.align	1
 2594              		.global	HAL_TIM_Encoder_GetState
 2595              		.syntax unified
 2596              		.thumb
 2597              		.thumb_func
 2598              		.fpu fpv4-sp-d16
 2600              	HAL_TIM_Encoder_GetState:
 2601              		@ args = 0, pretend = 0, frame = 0
 2602              		@ frame_needed = 0, uses_anonymous_args = 0
 2603              		@ link register save eliminated.
 2604 0000 90F83D00 		ldrb	r0, [r0, #61]	@ zero_extendqisi2
 2605 0004 7047     		bx	lr
 2607              		.section	.text.HAL_TIM_GetActiveChannel,"ax",%progbits
 2608              		.align	1
 2609              		.global	HAL_TIM_GetActiveChannel
 2610              		.syntax unified
 2611              		.thumb
 2612              		.thumb_func
 2613              		.fpu fpv4-sp-d16
 2615              	HAL_TIM_GetActiveChannel:
 2616              		@ args = 0, pretend = 0, frame = 0
 2617              		@ frame_needed = 0, uses_anonymous_args = 0
 2618              		@ link register save eliminated.
 2619 0000 007F     		ldrb	r0, [r0, #28]	@ zero_extendqisi2
 2620 0002 7047     		bx	lr
 2622              		.section	.text.HAL_TIM_GetChannelState,"ax",%progbits
 2623              		.align	1
 2624              		.global	HAL_TIM_GetChannelState
 2625              		.syntax unified
 2626              		.thumb
 2627              		.thumb_func
 2628              		.fpu fpv4-sp-d16
 2630              	HAL_TIM_GetChannelState:
 2631              		@ args = 0, pretend = 0, frame = 0
 2632              		@ frame_needed = 0, uses_anonymous_args = 0
 2633              		@ link register save eliminated.
 2634 0000 19B9     		cbnz	r1, .L305
 2635 0002 90F83E00 		ldrb	r0, [r0, #62]	@ zero_extendqisi2
 2636 0006 C0B2     		uxtb	r0, r0
 2637 0008 7047     		bx	lr
 2638              	.L305:
 2639 000a 0429     		cmp	r1, #4
 2640 000c 05D0     		beq	.L309
 2641 000e 0829     		cmp	r1, #8
 2642 0010 07D0     		beq	.L310
 2643 0012 90F84100 		ldrb	r0, [r0, #65]	@ zero_extendqisi2
 2644 0016 C0B2     		uxtb	r0, r0
 2645 0018 7047     		bx	lr
 2646              	.L309:
 2647 001a 90F83F00 		ldrb	r0, [r0, #63]	@ zero_extendqisi2
ARM GAS  /tmp/cc01cbqV.s 			page 45


 2648 001e C0B2     		uxtb	r0, r0
 2649 0020 7047     		bx	lr
 2650              	.L310:
 2651 0022 90F84000 		ldrb	r0, [r0, #64]	@ zero_extendqisi2
 2652 0026 C0B2     		uxtb	r0, r0
 2653 0028 7047     		bx	lr
 2655              		.section	.text.HAL_TIM_DMABurstState,"ax",%progbits
 2656              		.align	1
 2657              		.global	HAL_TIM_DMABurstState
 2658              		.syntax unified
 2659              		.thumb
 2660              		.thumb_func
 2661              		.fpu fpv4-sp-d16
 2663              	HAL_TIM_DMABurstState:
 2664              		@ args = 0, pretend = 0, frame = 0
 2665              		@ frame_needed = 0, uses_anonymous_args = 0
 2666              		@ link register save eliminated.
 2667 0000 90F84600 		ldrb	r0, [r0, #70]	@ zero_extendqisi2
 2668 0004 7047     		bx	lr
 2670              		.section	.text.TIM_Base_SetConfig,"ax",%progbits
 2671              		.align	1
 2672              		.global	TIM_Base_SetConfig
 2673              		.syntax unified
 2674              		.thumb
 2675              		.thumb_func
 2676              		.fpu fpv4-sp-d16
 2678              	TIM_Base_SetConfig:
 2679              		@ args = 0, pretend = 0, frame = 0
 2680              		@ frame_needed = 0, uses_anonymous_args = 0
 2681              		@ link register save eliminated.
 2682 0000 0368     		ldr	r3, [r0]
 2683 0002 304A     		ldr	r2, .L319
 2684 0004 9042     		cmp	r0, r2
 2685 0006 12D0     		beq	.L313
 2686 0008 B0F1804F 		cmp	r0, #1073741824
 2687 000c 0FD0     		beq	.L313
 2688 000e A2F57C42 		sub	r2, r2, #64512
 2689 0012 9042     		cmp	r0, r2
 2690 0014 0BD0     		beq	.L313
 2691 0016 02F58062 		add	r2, r2, #1024
 2692 001a 9042     		cmp	r0, r2
 2693 001c 07D0     		beq	.L313
 2694 001e 02F58062 		add	r2, r2, #1024
 2695 0022 9042     		cmp	r0, r2
 2696 0024 03D0     		beq	.L313
 2697 0026 02F57842 		add	r2, r2, #63488
 2698 002a 9042     		cmp	r0, r2
 2699 002c 03D1     		bne	.L314
 2700              	.L313:
 2701 002e 23F07003 		bic	r3, r3, #112
 2702 0032 4A68     		ldr	r2, [r1, #4]
 2703 0034 1343     		orrs	r3, r3, r2
 2704              	.L314:
 2705 0036 234A     		ldr	r2, .L319
 2706 0038 9042     		cmp	r0, r2
 2707 003a 2AD0     		beq	.L315
 2708 003c B0F1804F 		cmp	r0, #1073741824
ARM GAS  /tmp/cc01cbqV.s 			page 46


 2709 0040 27D0     		beq	.L315
 2710 0042 A2F57C42 		sub	r2, r2, #64512
 2711 0046 9042     		cmp	r0, r2
 2712 0048 23D0     		beq	.L315
 2713 004a 02F58062 		add	r2, r2, #1024
 2714 004e 9042     		cmp	r0, r2
 2715 0050 1FD0     		beq	.L315
 2716 0052 02F58062 		add	r2, r2, #1024
 2717 0056 9042     		cmp	r0, r2
 2718 0058 1BD0     		beq	.L315
 2719 005a 02F57842 		add	r2, r2, #63488
 2720 005e 9042     		cmp	r0, r2
 2721 0060 17D0     		beq	.L315
 2722 0062 02F57052 		add	r2, r2, #15360
 2723 0066 9042     		cmp	r0, r2
 2724 0068 13D0     		beq	.L315
 2725 006a 02F58062 		add	r2, r2, #1024
 2726 006e 9042     		cmp	r0, r2
 2727 0070 0FD0     		beq	.L315
 2728 0072 02F58062 		add	r2, r2, #1024
 2729 0076 9042     		cmp	r0, r2
 2730 0078 0BD0     		beq	.L315
 2731 007a A2F59832 		sub	r2, r2, #77824
 2732 007e 9042     		cmp	r0, r2
 2733 0080 07D0     		beq	.L315
 2734 0082 02F58062 		add	r2, r2, #1024
 2735 0086 9042     		cmp	r0, r2
 2736 0088 03D0     		beq	.L315
 2737 008a 02F58062 		add	r2, r2, #1024
 2738 008e 9042     		cmp	r0, r2
 2739 0090 03D1     		bne	.L316
 2740              	.L315:
 2741 0092 23F44073 		bic	r3, r3, #768
 2742 0096 CA68     		ldr	r2, [r1, #12]
 2743 0098 1343     		orrs	r3, r3, r2
 2744              	.L316:
 2745 009a 23F08003 		bic	r3, r3, #128
 2746 009e 4A69     		ldr	r2, [r1, #20]
 2747 00a0 1343     		orrs	r3, r3, r2
 2748 00a2 0360     		str	r3, [r0]
 2749 00a4 8B68     		ldr	r3, [r1, #8]
 2750 00a6 C362     		str	r3, [r0, #44]
 2751 00a8 0B68     		ldr	r3, [r1]
 2752 00aa 8362     		str	r3, [r0, #40]
 2753 00ac 054B     		ldr	r3, .L319
 2754 00ae 9842     		cmp	r0, r3
 2755 00b0 03D0     		beq	.L317
 2756 00b2 03F58063 		add	r3, r3, #1024
 2757 00b6 9842     		cmp	r0, r3
 2758 00b8 01D1     		bne	.L318
 2759              	.L317:
 2760 00ba 0B69     		ldr	r3, [r1, #16]
 2761 00bc 0363     		str	r3, [r0, #48]
 2762              	.L318:
 2763 00be 0123     		movs	r3, #1
 2764 00c0 4361     		str	r3, [r0, #20]
 2765 00c2 7047     		bx	lr
ARM GAS  /tmp/cc01cbqV.s 			page 47


 2766              	.L320:
 2767              		.align	2
 2768              	.L319:
 2769 00c4 00000140 		.word	1073807360
 2771              		.section	.text.HAL_TIM_Base_Init,"ax",%progbits
 2772              		.align	1
 2773              		.global	HAL_TIM_Base_Init
 2774              		.syntax unified
 2775              		.thumb
 2776              		.thumb_func
 2777              		.fpu fpv4-sp-d16
 2779              	HAL_TIM_Base_Init:
 2780              		@ args = 0, pretend = 0, frame = 0
 2781              		@ frame_needed = 0, uses_anonymous_args = 0
 2782 0000 40B3     		cbz	r0, .L324
 2783 0002 10B5     		push	{r4, lr}
 2784 0004 0446     		mov	r4, r0
 2785 0006 90F83D30 		ldrb	r3, [r0, #61]	@ zero_extendqisi2
 2786 000a F3B1     		cbz	r3, .L329
 2787              	.L323:
 2788 000c 0223     		movs	r3, #2
 2789 000e 84F83D30 		strb	r3, [r4, #61]
 2790 0012 2146     		mov	r1, r4
 2791 0014 51F8040B 		ldr	r0, [r1], #4
 2792 0018 FFF7FEFF 		bl	TIM_Base_SetConfig
 2793 001c 0123     		movs	r3, #1
 2794 001e 84F84630 		strb	r3, [r4, #70]
 2795 0022 84F83E30 		strb	r3, [r4, #62]
 2796 0026 84F83F30 		strb	r3, [r4, #63]
 2797 002a 84F84030 		strb	r3, [r4, #64]
 2798 002e 84F84130 		strb	r3, [r4, #65]
 2799 0032 84F84230 		strb	r3, [r4, #66]
 2800 0036 84F84330 		strb	r3, [r4, #67]
 2801 003a 84F84430 		strb	r3, [r4, #68]
 2802 003e 84F84530 		strb	r3, [r4, #69]
 2803 0042 84F83D30 		strb	r3, [r4, #61]
 2804 0046 0020     		movs	r0, #0
 2805 0048 10BD     		pop	{r4, pc}
 2806              	.L329:
 2807 004a 80F83C30 		strb	r3, [r0, #60]
 2808 004e FFF7FEFF 		bl	HAL_TIM_Base_MspInit
 2809 0052 DBE7     		b	.L323
 2810              	.L324:
 2811 0054 0120     		movs	r0, #1
 2812 0056 7047     		bx	lr
 2814              		.section	.text.HAL_TIM_OC_Init,"ax",%progbits
 2815              		.align	1
 2816              		.global	HAL_TIM_OC_Init
 2817              		.syntax unified
 2818              		.thumb
 2819              		.thumb_func
 2820              		.fpu fpv4-sp-d16
 2822              	HAL_TIM_OC_Init:
 2823              		@ args = 0, pretend = 0, frame = 0
 2824              		@ frame_needed = 0, uses_anonymous_args = 0
 2825 0000 40B3     		cbz	r0, .L333
 2826 0002 10B5     		push	{r4, lr}
ARM GAS  /tmp/cc01cbqV.s 			page 48


 2827 0004 0446     		mov	r4, r0
 2828 0006 90F83D30 		ldrb	r3, [r0, #61]	@ zero_extendqisi2
 2829 000a F3B1     		cbz	r3, .L338
 2830              	.L332:
 2831 000c 0223     		movs	r3, #2
 2832 000e 84F83D30 		strb	r3, [r4, #61]
 2833 0012 2146     		mov	r1, r4
 2834 0014 51F8040B 		ldr	r0, [r1], #4
 2835 0018 FFF7FEFF 		bl	TIM_Base_SetConfig
 2836 001c 0123     		movs	r3, #1
 2837 001e 84F84630 		strb	r3, [r4, #70]
 2838 0022 84F83E30 		strb	r3, [r4, #62]
 2839 0026 84F83F30 		strb	r3, [r4, #63]
 2840 002a 84F84030 		strb	r3, [r4, #64]
 2841 002e 84F84130 		strb	r3, [r4, #65]
 2842 0032 84F84230 		strb	r3, [r4, #66]
 2843 0036 84F84330 		strb	r3, [r4, #67]
 2844 003a 84F84430 		strb	r3, [r4, #68]
 2845 003e 84F84530 		strb	r3, [r4, #69]
 2846 0042 84F83D30 		strb	r3, [r4, #61]
 2847 0046 0020     		movs	r0, #0
 2848 0048 10BD     		pop	{r4, pc}
 2849              	.L338:
 2850 004a 80F83C30 		strb	r3, [r0, #60]
 2851 004e FFF7FEFF 		bl	HAL_TIM_OC_MspInit
 2852 0052 DBE7     		b	.L332
 2853              	.L333:
 2854 0054 0120     		movs	r0, #1
 2855 0056 7047     		bx	lr
 2857              		.section	.text.HAL_TIM_PWM_Init,"ax",%progbits
 2858              		.align	1
 2859              		.global	HAL_TIM_PWM_Init
 2860              		.syntax unified
 2861              		.thumb
 2862              		.thumb_func
 2863              		.fpu fpv4-sp-d16
 2865              	HAL_TIM_PWM_Init:
 2866              		@ args = 0, pretend = 0, frame = 0
 2867              		@ frame_needed = 0, uses_anonymous_args = 0
 2868 0000 40B3     		cbz	r0, .L342
 2869 0002 10B5     		push	{r4, lr}
 2870 0004 0446     		mov	r4, r0
 2871 0006 90F83D30 		ldrb	r3, [r0, #61]	@ zero_extendqisi2
 2872 000a F3B1     		cbz	r3, .L347
 2873              	.L341:
 2874 000c 0223     		movs	r3, #2
 2875 000e 84F83D30 		strb	r3, [r4, #61]
 2876 0012 2146     		mov	r1, r4
 2877 0014 51F8040B 		ldr	r0, [r1], #4
 2878 0018 FFF7FEFF 		bl	TIM_Base_SetConfig
 2879 001c 0123     		movs	r3, #1
 2880 001e 84F84630 		strb	r3, [r4, #70]
 2881 0022 84F83E30 		strb	r3, [r4, #62]
 2882 0026 84F83F30 		strb	r3, [r4, #63]
 2883 002a 84F84030 		strb	r3, [r4, #64]
 2884 002e 84F84130 		strb	r3, [r4, #65]
 2885 0032 84F84230 		strb	r3, [r4, #66]
ARM GAS  /tmp/cc01cbqV.s 			page 49


 2886 0036 84F84330 		strb	r3, [r4, #67]
 2887 003a 84F84430 		strb	r3, [r4, #68]
 2888 003e 84F84530 		strb	r3, [r4, #69]
 2889 0042 84F83D30 		strb	r3, [r4, #61]
 2890 0046 0020     		movs	r0, #0
 2891 0048 10BD     		pop	{r4, pc}
 2892              	.L347:
 2893 004a 80F83C30 		strb	r3, [r0, #60]
 2894 004e FFF7FEFF 		bl	HAL_TIM_PWM_MspInit
 2895 0052 DBE7     		b	.L341
 2896              	.L342:
 2897 0054 0120     		movs	r0, #1
 2898 0056 7047     		bx	lr
 2900              		.section	.text.HAL_TIM_IC_Init,"ax",%progbits
 2901              		.align	1
 2902              		.global	HAL_TIM_IC_Init
 2903              		.syntax unified
 2904              		.thumb
 2905              		.thumb_func
 2906              		.fpu fpv4-sp-d16
 2908              	HAL_TIM_IC_Init:
 2909              		@ args = 0, pretend = 0, frame = 0
 2910              		@ frame_needed = 0, uses_anonymous_args = 0
 2911 0000 40B3     		cbz	r0, .L351
 2912 0002 10B5     		push	{r4, lr}
 2913 0004 0446     		mov	r4, r0
 2914 0006 90F83D30 		ldrb	r3, [r0, #61]	@ zero_extendqisi2
 2915 000a F3B1     		cbz	r3, .L356
 2916              	.L350:
 2917 000c 0223     		movs	r3, #2
 2918 000e 84F83D30 		strb	r3, [r4, #61]
 2919 0012 2146     		mov	r1, r4
 2920 0014 51F8040B 		ldr	r0, [r1], #4
 2921 0018 FFF7FEFF 		bl	TIM_Base_SetConfig
 2922 001c 0123     		movs	r3, #1
 2923 001e 84F84630 		strb	r3, [r4, #70]
 2924 0022 84F83E30 		strb	r3, [r4, #62]
 2925 0026 84F83F30 		strb	r3, [r4, #63]
 2926 002a 84F84030 		strb	r3, [r4, #64]
 2927 002e 84F84130 		strb	r3, [r4, #65]
 2928 0032 84F84230 		strb	r3, [r4, #66]
 2929 0036 84F84330 		strb	r3, [r4, #67]
 2930 003a 84F84430 		strb	r3, [r4, #68]
 2931 003e 84F84530 		strb	r3, [r4, #69]
 2932 0042 84F83D30 		strb	r3, [r4, #61]
 2933 0046 0020     		movs	r0, #0
 2934 0048 10BD     		pop	{r4, pc}
 2935              	.L356:
 2936 004a 80F83C30 		strb	r3, [r0, #60]
 2937 004e FFF7FEFF 		bl	HAL_TIM_IC_MspInit
 2938 0052 DBE7     		b	.L350
 2939              	.L351:
 2940 0054 0120     		movs	r0, #1
 2941 0056 7047     		bx	lr
 2943              		.section	.text.HAL_TIM_OnePulse_Init,"ax",%progbits
 2944              		.align	1
 2945              		.global	HAL_TIM_OnePulse_Init
ARM GAS  /tmp/cc01cbqV.s 			page 50


 2946              		.syntax unified
 2947              		.thumb
 2948              		.thumb_func
 2949              		.fpu fpv4-sp-d16
 2951              	HAL_TIM_OnePulse_Init:
 2952              		@ args = 0, pretend = 0, frame = 0
 2953              		@ frame_needed = 0, uses_anonymous_args = 0
 2954 0000 50B3     		cbz	r0, .L360
 2955 0002 38B5     		push	{r3, r4, r5, lr}
 2956 0004 0D46     		mov	r5, r1
 2957 0006 0446     		mov	r4, r0
 2958 0008 90F83D30 		ldrb	r3, [r0, #61]	@ zero_extendqisi2
 2959 000c FBB1     		cbz	r3, .L365
 2960              	.L359:
 2961 000e 0223     		movs	r3, #2
 2962 0010 84F83D30 		strb	r3, [r4, #61]
 2963 0014 2146     		mov	r1, r4
 2964 0016 51F8040B 		ldr	r0, [r1], #4
 2965 001a FFF7FEFF 		bl	TIM_Base_SetConfig
 2966 001e 2268     		ldr	r2, [r4]
 2967 0020 1368     		ldr	r3, [r2]
 2968 0022 23F00803 		bic	r3, r3, #8
 2969 0026 1360     		str	r3, [r2]
 2970 0028 2368     		ldr	r3, [r4]
 2971 002a 1968     		ldr	r1, [r3]
 2972 002c 0D43     		orrs	r5, r5, r1
 2973 002e 1D60     		str	r5, [r3]
 2974 0030 0123     		movs	r3, #1
 2975 0032 84F84630 		strb	r3, [r4, #70]
 2976 0036 84F83E30 		strb	r3, [r4, #62]
 2977 003a 84F83F30 		strb	r3, [r4, #63]
 2978 003e 84F84230 		strb	r3, [r4, #66]
 2979 0042 84F84330 		strb	r3, [r4, #67]
 2980 0046 84F83D30 		strb	r3, [r4, #61]
 2981 004a 0020     		movs	r0, #0
 2982 004c 38BD     		pop	{r3, r4, r5, pc}
 2983              	.L365:
 2984 004e 80F83C30 		strb	r3, [r0, #60]
 2985 0052 FFF7FEFF 		bl	HAL_TIM_OnePulse_MspInit
 2986 0056 DAE7     		b	.L359
 2987              	.L360:
 2988 0058 0120     		movs	r0, #1
 2989 005a 7047     		bx	lr
 2991              		.section	.text.HAL_TIM_Encoder_Init,"ax",%progbits
 2992              		.align	1
 2993              		.global	HAL_TIM_Encoder_Init
 2994              		.syntax unified
 2995              		.thumb
 2996              		.thumb_func
 2997              		.fpu fpv4-sp-d16
 2999              	HAL_TIM_Encoder_Init:
 3000              		@ args = 0, pretend = 0, frame = 0
 3001              		@ frame_needed = 0, uses_anonymous_args = 0
 3002 0000 0028     		cmp	r0, #0
 3003 0002 56D0     		beq	.L369
 3004 0004 F8B5     		push	{r3, r4, r5, r6, r7, lr}
 3005 0006 0D46     		mov	r5, r1
ARM GAS  /tmp/cc01cbqV.s 			page 51


 3006 0008 0446     		mov	r4, r0
 3007 000a 90F83D30 		ldrb	r3, [r0, #61]	@ zero_extendqisi2
 3008 000e 002B     		cmp	r3, #0
 3009 0010 4AD0     		beq	.L374
 3010              	.L368:
 3011 0012 0223     		movs	r3, #2
 3012 0014 84F83D30 		strb	r3, [r4, #61]
 3013 0018 2268     		ldr	r2, [r4]
 3014 001a 9368     		ldr	r3, [r2, #8]
 3015 001c 23F48043 		bic	r3, r3, #16384
 3016 0020 23F00703 		bic	r3, r3, #7
 3017 0024 9360     		str	r3, [r2, #8]
 3018 0026 2146     		mov	r1, r4
 3019 0028 51F8040B 		ldr	r0, [r1], #4
 3020 002c FFF7FEFF 		bl	TIM_Base_SetConfig
 3021 0030 2168     		ldr	r1, [r4]
 3022 0032 8A68     		ldr	r2, [r1, #8]
 3023 0034 8B69     		ldr	r3, [r1, #24]
 3024 0036 0E6A     		ldr	r6, [r1, #32]
 3025 0038 2868     		ldr	r0, [r5]
 3026 003a 1043     		orrs	r0, r0, r2
 3027 003c 23F4407C 		bic	ip, r3, #768
 3028 0040 2CF0030C 		bic	ip, ip, #3
 3029 0044 AA68     		ldr	r2, [r5, #8]
 3030 0046 AB69     		ldr	r3, [r5, #24]
 3031 0048 42EA0323 		orr	r3, r2, r3, lsl #8
 3032 004c 43EA0C03 		orr	r3, r3, ip
 3033 0050 23F47C43 		bic	r3, r3, #64512
 3034 0054 23F0FC03 		bic	r3, r3, #252
 3035 0058 EA69     		ldr	r2, [r5, #28]
 3036 005a EF68     		ldr	r7, [r5, #12]
 3037 005c 47EA022C 		orr	ip, r7, r2, lsl #8
 3038 0060 4CEA030C 		orr	ip, ip, r3
 3039 0064 2A6A     		ldr	r2, [r5, #32]
 3040 0066 1303     		lsls	r3, r2, #12
 3041 0068 2A69     		ldr	r2, [r5, #16]
 3042 006a 43EA0213 		orr	r3, r3, r2, lsl #4
 3043 006e 43EA0C03 		orr	r3, r3, ip
 3044 0072 26F0AA06 		bic	r6, r6, #170
 3045 0076 6A68     		ldr	r2, [r5, #4]
 3046 0078 6D69     		ldr	r5, [r5, #20]
 3047 007a 42EA0512 		orr	r2, r2, r5, lsl #4
 3048 007e 3243     		orrs	r2, r2, r6
 3049 0080 8860     		str	r0, [r1, #8]
 3050 0082 2168     		ldr	r1, [r4]
 3051 0084 8B61     		str	r3, [r1, #24]
 3052 0086 2368     		ldr	r3, [r4]
 3053 0088 1A62     		str	r2, [r3, #32]
 3054 008a 0123     		movs	r3, #1
 3055 008c 84F84630 		strb	r3, [r4, #70]
 3056 0090 84F83E30 		strb	r3, [r4, #62]
 3057 0094 84F83F30 		strb	r3, [r4, #63]
 3058 0098 84F84230 		strb	r3, [r4, #66]
 3059 009c 84F84330 		strb	r3, [r4, #67]
 3060 00a0 84F83D30 		strb	r3, [r4, #61]
 3061 00a4 0020     		movs	r0, #0
 3062 00a6 F8BD     		pop	{r3, r4, r5, r6, r7, pc}
ARM GAS  /tmp/cc01cbqV.s 			page 52


 3063              	.L374:
 3064 00a8 80F83C30 		strb	r3, [r0, #60]
 3065 00ac FFF7FEFF 		bl	HAL_TIM_Encoder_MspInit
 3066 00b0 AFE7     		b	.L368
 3067              	.L369:
 3068 00b2 0120     		movs	r0, #1
 3069 00b4 7047     		bx	lr
 3071              		.section	.text.TIM_OC2_SetConfig,"ax",%progbits
 3072              		.align	1
 3073              		.global	TIM_OC2_SetConfig
 3074              		.syntax unified
 3075              		.thumb
 3076              		.thumb_func
 3077              		.fpu fpv4-sp-d16
 3079              	TIM_OC2_SetConfig:
 3080              		@ args = 0, pretend = 0, frame = 0
 3081              		@ frame_needed = 0, uses_anonymous_args = 0
 3082              		@ link register save eliminated.
 3083 0000 30B4     		push	{r4, r5}
 3084 0002 036A     		ldr	r3, [r0, #32]
 3085 0004 23F01003 		bic	r3, r3, #16
 3086 0008 0362     		str	r3, [r0, #32]
 3087 000a 036A     		ldr	r3, [r0, #32]
 3088 000c 4468     		ldr	r4, [r0, #4]
 3089 000e 8269     		ldr	r2, [r0, #24]
 3090 0010 22F4E642 		bic	r2, r2, #29440
 3091 0014 0D68     		ldr	r5, [r1]
 3092 0016 42EA0522 		orr	r2, r2, r5, lsl #8
 3093 001a 23F02003 		bic	r3, r3, #32
 3094 001e 8D68     		ldr	r5, [r1, #8]
 3095 0020 43EA0513 		orr	r3, r3, r5, lsl #4
 3096 0024 114D     		ldr	r5, .L381
 3097 0026 A842     		cmp	r0, r5
 3098 0028 03D0     		beq	.L376
 3099 002a 05F58065 		add	r5, r5, #1024
 3100 002e A842     		cmp	r0, r5
 3101 0030 06D1     		bne	.L377
 3102              	.L376:
 3103 0032 23F08003 		bic	r3, r3, #128
 3104 0036 CD68     		ldr	r5, [r1, #12]
 3105 0038 43EA0513 		orr	r3, r3, r5, lsl #4
 3106 003c 23F04003 		bic	r3, r3, #64
 3107              	.L377:
 3108 0040 0A4D     		ldr	r5, .L381
 3109 0042 A842     		cmp	r0, r5
 3110 0044 03D0     		beq	.L378
 3111 0046 05F58065 		add	r5, r5, #1024
 3112 004a A842     		cmp	r0, r5
 3113 004c 07D1     		bne	.L379
 3114              	.L378:
 3115 004e 24F44064 		bic	r4, r4, #3072
 3116 0052 4D69     		ldr	r5, [r1, #20]
 3117 0054 44EA8504 		orr	r4, r4, r5, lsl #2
 3118 0058 8D69     		ldr	r5, [r1, #24]
 3119 005a 44EA8504 		orr	r4, r4, r5, lsl #2
 3120              	.L379:
 3121 005e 4460     		str	r4, [r0, #4]
ARM GAS  /tmp/cc01cbqV.s 			page 53


 3122 0060 8261     		str	r2, [r0, #24]
 3123 0062 4A68     		ldr	r2, [r1, #4]
 3124 0064 8263     		str	r2, [r0, #56]
 3125 0066 0362     		str	r3, [r0, #32]
 3126 0068 30BC     		pop	{r4, r5}
 3127 006a 7047     		bx	lr
 3128              	.L382:
 3129              		.align	2
 3130              	.L381:
 3131 006c 00000140 		.word	1073807360
 3133              		.section	.text.HAL_TIM_OC_ConfigChannel,"ax",%progbits
 3134              		.align	1
 3135              		.global	HAL_TIM_OC_ConfigChannel
 3136              		.syntax unified
 3137              		.thumb
 3138              		.thumb_func
 3139              		.fpu fpv4-sp-d16
 3141              	HAL_TIM_OC_ConfigChannel:
 3142              		@ args = 0, pretend = 0, frame = 0
 3143              		@ frame_needed = 0, uses_anonymous_args = 0
 3144 0000 90F83C30 		ldrb	r3, [r0, #60]	@ zero_extendqisi2
 3145 0004 012B     		cmp	r3, #1
 3146 0006 28D0     		beq	.L391
 3147 0008 10B5     		push	{r4, lr}
 3148 000a 0446     		mov	r4, r0
 3149 000c 0123     		movs	r3, #1
 3150 000e 80F83C30 		strb	r3, [r0, #60]
 3151 0012 0C2A     		cmp	r2, #12
 3152 0014 1CD8     		bhi	.L392
 3153 0016 DFE802F0 		tbb	[pc, r2]
 3154              	.L387:
 3155 001a 07       		.byte	(.L390-.L387)/2
 3156 001b 1B       		.byte	(.L392-.L387)/2
 3157 001c 1B       		.byte	(.L392-.L387)/2
 3158 001d 1B       		.byte	(.L392-.L387)/2
 3159 001e 0C       		.byte	(.L389-.L387)/2
 3160 001f 1B       		.byte	(.L392-.L387)/2
 3161 0020 1B       		.byte	(.L392-.L387)/2
 3162 0021 1B       		.byte	(.L392-.L387)/2
 3163 0022 11       		.byte	(.L388-.L387)/2
 3164 0023 1B       		.byte	(.L392-.L387)/2
 3165 0024 1B       		.byte	(.L392-.L387)/2
 3166 0025 1B       		.byte	(.L392-.L387)/2
 3167 0026 16       		.byte	(.L386-.L387)/2
 3168 0027 00       		.p2align 1
 3169              	.L390:
 3170 0028 0068     		ldr	r0, [r0]
 3171 002a FFF7FEFF 		bl	TIM_OC1_SetConfig
 3172 002e 0020     		movs	r0, #0
 3173 0030 0FE0     		b	.L385
 3174              	.L389:
 3175 0032 0068     		ldr	r0, [r0]
 3176 0034 FFF7FEFF 		bl	TIM_OC2_SetConfig
 3177 0038 0020     		movs	r0, #0
 3178 003a 0AE0     		b	.L385
 3179              	.L388:
 3180 003c 0068     		ldr	r0, [r0]
ARM GAS  /tmp/cc01cbqV.s 			page 54


 3181 003e FFF7FEFF 		bl	TIM_OC3_SetConfig
 3182 0042 0020     		movs	r0, #0
 3183 0044 05E0     		b	.L385
 3184              	.L386:
 3185 0046 0068     		ldr	r0, [r0]
 3186 0048 FFF7FEFF 		bl	TIM_OC4_SetConfig
 3187 004c 0020     		movs	r0, #0
 3188 004e 00E0     		b	.L385
 3189              	.L392:
 3190 0050 0120     		movs	r0, #1
 3191              	.L385:
 3192 0052 0023     		movs	r3, #0
 3193 0054 84F83C30 		strb	r3, [r4, #60]
 3194 0058 10BD     		pop	{r4, pc}
 3195              	.L391:
 3196 005a 0220     		movs	r0, #2
 3197 005c 7047     		bx	lr
 3199              		.section	.text.HAL_TIM_PWM_ConfigChannel,"ax",%progbits
 3200              		.align	1
 3201              		.global	HAL_TIM_PWM_ConfigChannel
 3202              		.syntax unified
 3203              		.thumb
 3204              		.thumb_func
 3205              		.fpu fpv4-sp-d16
 3207              	HAL_TIM_PWM_ConfigChannel:
 3208              		@ args = 0, pretend = 0, frame = 0
 3209              		@ frame_needed = 0, uses_anonymous_args = 0
 3210 0000 38B5     		push	{r3, r4, r5, lr}
 3211 0002 90F83C30 		ldrb	r3, [r0, #60]	@ zero_extendqisi2
 3212 0006 012B     		cmp	r3, #1
 3213 0008 66D0     		beq	.L405
 3214 000a 0446     		mov	r4, r0
 3215 000c 0D46     		mov	r5, r1
 3216 000e 0123     		movs	r3, #1
 3217 0010 80F83C30 		strb	r3, [r0, #60]
 3218 0014 0C2A     		cmp	r2, #12
 3219 0016 5AD8     		bhi	.L406
 3220 0018 DFE802F0 		tbb	[pc, r2]
 3221              	.L401:
 3222 001c 07       		.byte	(.L404-.L401)/2
 3223 001d 59       		.byte	(.L406-.L401)/2
 3224 001e 59       		.byte	(.L406-.L401)/2
 3225 001f 59       		.byte	(.L406-.L401)/2
 3226 0020 1B       		.byte	(.L403-.L401)/2
 3227 0021 59       		.byte	(.L406-.L401)/2
 3228 0022 59       		.byte	(.L406-.L401)/2
 3229 0023 59       		.byte	(.L406-.L401)/2
 3230 0024 30       		.byte	(.L402-.L401)/2
 3231 0025 59       		.byte	(.L406-.L401)/2
 3232 0026 59       		.byte	(.L406-.L401)/2
 3233 0027 59       		.byte	(.L406-.L401)/2
 3234 0028 44       		.byte	(.L400-.L401)/2
 3235 0029 00       		.p2align 1
 3236              	.L404:
 3237 002a 0068     		ldr	r0, [r0]
 3238 002c FFF7FEFF 		bl	TIM_OC1_SetConfig
 3239 0030 2268     		ldr	r2, [r4]
ARM GAS  /tmp/cc01cbqV.s 			page 55


 3240 0032 9369     		ldr	r3, [r2, #24]
 3241 0034 43F00803 		orr	r3, r3, #8
 3242 0038 9361     		str	r3, [r2, #24]
 3243 003a 2268     		ldr	r2, [r4]
 3244 003c 9369     		ldr	r3, [r2, #24]
 3245 003e 23F00403 		bic	r3, r3, #4
 3246 0042 9361     		str	r3, [r2, #24]
 3247 0044 2268     		ldr	r2, [r4]
 3248 0046 9369     		ldr	r3, [r2, #24]
 3249 0048 2969     		ldr	r1, [r5, #16]
 3250 004a 0B43     		orrs	r3, r3, r1
 3251 004c 9361     		str	r3, [r2, #24]
 3252 004e 0020     		movs	r0, #0
 3253 0050 3EE0     		b	.L399
 3254              	.L403:
 3255 0052 0068     		ldr	r0, [r0]
 3256 0054 FFF7FEFF 		bl	TIM_OC2_SetConfig
 3257 0058 2268     		ldr	r2, [r4]
 3258 005a 9369     		ldr	r3, [r2, #24]
 3259 005c 43F40063 		orr	r3, r3, #2048
 3260 0060 9361     		str	r3, [r2, #24]
 3261 0062 2268     		ldr	r2, [r4]
 3262 0064 9369     		ldr	r3, [r2, #24]
 3263 0066 23F48063 		bic	r3, r3, #1024
 3264 006a 9361     		str	r3, [r2, #24]
 3265 006c 2268     		ldr	r2, [r4]
 3266 006e 9369     		ldr	r3, [r2, #24]
 3267 0070 2969     		ldr	r1, [r5, #16]
 3268 0072 43EA0123 		orr	r3, r3, r1, lsl #8
 3269 0076 9361     		str	r3, [r2, #24]
 3270 0078 0020     		movs	r0, #0
 3271 007a 29E0     		b	.L399
 3272              	.L402:
 3273 007c 0068     		ldr	r0, [r0]
 3274 007e FFF7FEFF 		bl	TIM_OC3_SetConfig
 3275 0082 2268     		ldr	r2, [r4]
 3276 0084 D369     		ldr	r3, [r2, #28]
 3277 0086 43F00803 		orr	r3, r3, #8
 3278 008a D361     		str	r3, [r2, #28]
 3279 008c 2268     		ldr	r2, [r4]
 3280 008e D369     		ldr	r3, [r2, #28]
 3281 0090 23F00403 		bic	r3, r3, #4
 3282 0094 D361     		str	r3, [r2, #28]
 3283 0096 2268     		ldr	r2, [r4]
 3284 0098 D369     		ldr	r3, [r2, #28]
 3285 009a 2969     		ldr	r1, [r5, #16]
 3286 009c 0B43     		orrs	r3, r3, r1
 3287 009e D361     		str	r3, [r2, #28]
 3288 00a0 0020     		movs	r0, #0
 3289 00a2 15E0     		b	.L399
 3290              	.L400:
 3291 00a4 0068     		ldr	r0, [r0]
 3292 00a6 FFF7FEFF 		bl	TIM_OC4_SetConfig
 3293 00aa 2268     		ldr	r2, [r4]
 3294 00ac D369     		ldr	r3, [r2, #28]
 3295 00ae 43F40063 		orr	r3, r3, #2048
 3296 00b2 D361     		str	r3, [r2, #28]
ARM GAS  /tmp/cc01cbqV.s 			page 56


 3297 00b4 2268     		ldr	r2, [r4]
 3298 00b6 D369     		ldr	r3, [r2, #28]
 3299 00b8 23F48063 		bic	r3, r3, #1024
 3300 00bc D361     		str	r3, [r2, #28]
 3301 00be 2268     		ldr	r2, [r4]
 3302 00c0 D369     		ldr	r3, [r2, #28]
 3303 00c2 2969     		ldr	r1, [r5, #16]
 3304 00c4 43EA0123 		orr	r3, r3, r1, lsl #8
 3305 00c8 D361     		str	r3, [r2, #28]
 3306 00ca 0020     		movs	r0, #0
 3307 00cc 00E0     		b	.L399
 3308              	.L406:
 3309 00ce 0120     		movs	r0, #1
 3310              	.L399:
 3311 00d0 0023     		movs	r3, #0
 3312 00d2 84F83C30 		strb	r3, [r4, #60]
 3313              	.L398:
 3314 00d6 38BD     		pop	{r3, r4, r5, pc}
 3315              	.L405:
 3316 00d8 0220     		movs	r0, #2
 3317 00da FCE7     		b	.L398
 3319              		.section	.text.TIM_TI1_SetConfig,"ax",%progbits
 3320              		.align	1
 3321              		.global	TIM_TI1_SetConfig
 3322              		.syntax unified
 3323              		.thumb
 3324              		.thumb_func
 3325              		.fpu fpv4-sp-d16
 3327              	TIM_TI1_SetConfig:
 3328              		@ args = 0, pretend = 0, frame = 0
 3329              		@ frame_needed = 0, uses_anonymous_args = 0
 3330              		@ link register save eliminated.
 3331 0000 70B4     		push	{r4, r5, r6}
 3332 0002 9446     		mov	ip, r2
 3333 0004 046A     		ldr	r4, [r0, #32]
 3334 0006 24F00104 		bic	r4, r4, #1
 3335 000a 0462     		str	r4, [r0, #32]
 3336 000c 8469     		ldr	r4, [r0, #24]
 3337 000e 066A     		ldr	r6, [r0, #32]
 3338 0010 184D     		ldr	r5, .L412
 3339 0012 A842     		cmp	r0, r5
 3340 0014 1CD0     		beq	.L409
 3341 0016 B0F1804F 		cmp	r0, #1073741824
 3342 001a 19D0     		beq	.L409
 3343 001c 164A     		ldr	r2, .L412+4
 3344 001e 9042     		cmp	r0, r2
 3345 0020 16D0     		beq	.L409
 3346 0022 02F58062 		add	r2, r2, #1024
 3347 0026 9042     		cmp	r0, r2
 3348 0028 12D0     		beq	.L409
 3349 002a 02F58062 		add	r2, r2, #1024
 3350 002e 9042     		cmp	r0, r2
 3351 0030 0ED0     		beq	.L409
 3352 0032 02F57842 		add	r2, r2, #63488
 3353 0036 9042     		cmp	r0, r2
 3354 0038 0AD0     		beq	.L409
 3355 003a 02F57052 		add	r2, r2, #15360
ARM GAS  /tmp/cc01cbqV.s 			page 57


 3356 003e 9042     		cmp	r0, r2
 3357 0040 06D0     		beq	.L409
 3358 0042 A2F59432 		sub	r2, r2, #75776
 3359 0046 9042     		cmp	r0, r2
 3360 0048 02D0     		beq	.L409
 3361 004a 44F00102 		orr	r2, r4, #1
 3362 004e 03E0     		b	.L410
 3363              	.L409:
 3364 0050 24F00302 		bic	r2, r4, #3
 3365 0054 42EA0C02 		orr	r2, r2, ip
 3366              	.L410:
 3367 0058 22F0F002 		bic	r2, r2, #240
 3368 005c 1B01     		lsls	r3, r3, #4
 3369 005e DBB2     		uxtb	r3, r3
 3370 0060 1343     		orrs	r3, r3, r2
 3371 0062 26F00A02 		bic	r2, r6, #10
 3372 0066 01F00A01 		and	r1, r1, #10
 3373 006a 1143     		orrs	r1, r1, r2
 3374 006c 8361     		str	r3, [r0, #24]
 3375 006e 0162     		str	r1, [r0, #32]
 3376 0070 70BC     		pop	{r4, r5, r6}
 3377 0072 7047     		bx	lr
 3378              	.L413:
 3379              		.align	2
 3380              	.L412:
 3381 0074 00000140 		.word	1073807360
 3382 0078 00040040 		.word	1073742848
 3384              		.section	.text.HAL_TIM_IC_ConfigChannel,"ax",%progbits
 3385              		.align	1
 3386              		.global	HAL_TIM_IC_ConfigChannel
 3387              		.syntax unified
 3388              		.thumb
 3389              		.thumb_func
 3390              		.fpu fpv4-sp-d16
 3392              	HAL_TIM_IC_ConfigChannel:
 3393              		@ args = 0, pretend = 0, frame = 0
 3394              		@ frame_needed = 0, uses_anonymous_args = 0
 3395 0000 38B5     		push	{r3, r4, r5, lr}
 3396 0002 90F83C30 		ldrb	r3, [r0, #60]	@ zero_extendqisi2
 3397 0006 012B     		cmp	r3, #1
 3398 0008 5AD0     		beq	.L420
 3399 000a 0446     		mov	r4, r0
 3400 000c 0D46     		mov	r5, r1
 3401 000e 0123     		movs	r3, #1
 3402 0010 80F83C30 		strb	r3, [r0, #60]
 3403 0014 52B1     		cbz	r2, .L423
 3404 0016 042A     		cmp	r2, #4
 3405 0018 1AD0     		beq	.L424
 3406 001a 082A     		cmp	r2, #8
 3407 001c 2BD0     		beq	.L425
 3408 001e 0C2A     		cmp	r2, #12
 3409 0020 3BD0     		beq	.L426
 3410 0022 0120     		movs	r0, #1
 3411              	.L417:
 3412 0024 0023     		movs	r3, #0
 3413 0026 84F83C30 		strb	r3, [r4, #60]
 3414              	.L415:
ARM GAS  /tmp/cc01cbqV.s 			page 58


 3415 002a 38BD     		pop	{r3, r4, r5, pc}
 3416              	.L423:
 3417 002c CB68     		ldr	r3, [r1, #12]
 3418 002e 4A68     		ldr	r2, [r1, #4]
 3419 0030 0968     		ldr	r1, [r1]
 3420 0032 0068     		ldr	r0, [r0]
 3421 0034 FFF7FEFF 		bl	TIM_TI1_SetConfig
 3422 0038 2268     		ldr	r2, [r4]
 3423 003a 9369     		ldr	r3, [r2, #24]
 3424 003c 23F00C03 		bic	r3, r3, #12
 3425 0040 9361     		str	r3, [r2, #24]
 3426 0042 2268     		ldr	r2, [r4]
 3427 0044 9369     		ldr	r3, [r2, #24]
 3428 0046 A968     		ldr	r1, [r5, #8]
 3429 0048 0B43     		orrs	r3, r3, r1
 3430 004a 9361     		str	r3, [r2, #24]
 3431 004c 0020     		movs	r0, #0
 3432 004e E9E7     		b	.L417
 3433              	.L424:
 3434 0050 CB68     		ldr	r3, [r1, #12]
 3435 0052 4A68     		ldr	r2, [r1, #4]
 3436 0054 0968     		ldr	r1, [r1]
 3437 0056 0068     		ldr	r0, [r0]
 3438 0058 FFF7FEFF 		bl	TIM_TI2_SetConfig
 3439 005c 2268     		ldr	r2, [r4]
 3440 005e 9369     		ldr	r3, [r2, #24]
 3441 0060 23F44063 		bic	r3, r3, #3072
 3442 0064 9361     		str	r3, [r2, #24]
 3443 0066 2268     		ldr	r2, [r4]
 3444 0068 9369     		ldr	r3, [r2, #24]
 3445 006a A968     		ldr	r1, [r5, #8]
 3446 006c 43EA0123 		orr	r3, r3, r1, lsl #8
 3447 0070 9361     		str	r3, [r2, #24]
 3448 0072 0020     		movs	r0, #0
 3449 0074 D6E7     		b	.L417
 3450              	.L425:
 3451 0076 CB68     		ldr	r3, [r1, #12]
 3452 0078 4A68     		ldr	r2, [r1, #4]
 3453 007a 0968     		ldr	r1, [r1]
 3454 007c 0068     		ldr	r0, [r0]
 3455 007e FFF7FEFF 		bl	TIM_TI3_SetConfig
 3456 0082 2268     		ldr	r2, [r4]
 3457 0084 D369     		ldr	r3, [r2, #28]
 3458 0086 23F00C03 		bic	r3, r3, #12
 3459 008a D361     		str	r3, [r2, #28]
 3460 008c 2268     		ldr	r2, [r4]
 3461 008e D369     		ldr	r3, [r2, #28]
 3462 0090 A968     		ldr	r1, [r5, #8]
 3463 0092 0B43     		orrs	r3, r3, r1
 3464 0094 D361     		str	r3, [r2, #28]
 3465 0096 0020     		movs	r0, #0
 3466 0098 C4E7     		b	.L417
 3467              	.L426:
 3468 009a CB68     		ldr	r3, [r1, #12]
 3469 009c 4A68     		ldr	r2, [r1, #4]
 3470 009e 0968     		ldr	r1, [r1]
 3471 00a0 0068     		ldr	r0, [r0]
ARM GAS  /tmp/cc01cbqV.s 			page 59


 3472 00a2 FFF7FEFF 		bl	TIM_TI4_SetConfig
 3473 00a6 2268     		ldr	r2, [r4]
 3474 00a8 D369     		ldr	r3, [r2, #28]
 3475 00aa 23F44063 		bic	r3, r3, #3072
 3476 00ae D361     		str	r3, [r2, #28]
 3477 00b0 2268     		ldr	r2, [r4]
 3478 00b2 D369     		ldr	r3, [r2, #28]
 3479 00b4 A968     		ldr	r1, [r5, #8]
 3480 00b6 43EA0123 		orr	r3, r3, r1, lsl #8
 3481 00ba D361     		str	r3, [r2, #28]
 3482 00bc 0020     		movs	r0, #0
 3483 00be B1E7     		b	.L417
 3484              	.L420:
 3485 00c0 0220     		movs	r0, #2
 3486 00c2 B2E7     		b	.L415
 3488              		.section	.text.HAL_TIM_OnePulse_ConfigChannel,"ax",%progbits
 3489              		.align	1
 3490              		.global	HAL_TIM_OnePulse_ConfigChannel
 3491              		.syntax unified
 3492              		.thumb
 3493              		.thumb_func
 3494              		.fpu fpv4-sp-d16
 3496              	HAL_TIM_OnePulse_ConfigChannel:
 3497              		@ args = 0, pretend = 0, frame = 32
 3498              		@ frame_needed = 0, uses_anonymous_args = 0
 3499 0000 9A42     		cmp	r2, r3
 3500 0002 76D0     		beq	.L435
 3501 0004 70B5     		push	{r4, r5, r6, lr}
 3502 0006 88B0     		sub	sp, sp, #32
 3503 0008 0446     		mov	r4, r0
 3504 000a 0D46     		mov	r5, r1
 3505 000c 1E46     		mov	r6, r3
 3506 000e 90F83C30 		ldrb	r3, [r0, #60]	@ zero_extendqisi2
 3507 0012 012B     		cmp	r3, #1
 3508 0014 6FD0     		beq	.L436
 3509 0016 0123     		movs	r3, #1
 3510 0018 80F83C30 		strb	r3, [r0, #60]
 3511 001c 0223     		movs	r3, #2
 3512 001e 80F83D30 		strb	r3, [r0, #61]
 3513 0022 0B68     		ldr	r3, [r1]
 3514 0024 0193     		str	r3, [sp, #4]
 3515 0026 4B68     		ldr	r3, [r1, #4]
 3516 0028 0293     		str	r3, [sp, #8]
 3517 002a 8B68     		ldr	r3, [r1, #8]
 3518 002c 0393     		str	r3, [sp, #12]
 3519 002e CB68     		ldr	r3, [r1, #12]
 3520 0030 0493     		str	r3, [sp, #16]
 3521 0032 0B69     		ldr	r3, [r1, #16]
 3522 0034 0693     		str	r3, [sp, #24]
 3523 0036 4B69     		ldr	r3, [r1, #20]
 3524 0038 0793     		str	r3, [sp, #28]
 3525 003a 52B1     		cbz	r2, .L429
 3526 003c 042A     		cmp	r2, #4
 3527 003e 11D0     		beq	.L430
 3528 0040 0120     		movs	r0, #1
 3529              	.L431:
 3530 0042 0123     		movs	r3, #1
ARM GAS  /tmp/cc01cbqV.s 			page 60


 3531 0044 84F83D30 		strb	r3, [r4, #61]
 3532 0048 0023     		movs	r3, #0
 3533 004a 84F83C30 		strb	r3, [r4, #60]
 3534              	.L428:
 3535 004e 08B0     		add	sp, sp, #32
 3536              		@ sp needed
 3537 0050 70BD     		pop	{r4, r5, r6, pc}
 3538              	.L429:
 3539 0052 01A9     		add	r1, sp, #4
 3540 0054 0068     		ldr	r0, [r0]
 3541 0056 FFF7FEFF 		bl	TIM_OC1_SetConfig
 3542              	.L432:
 3543 005a 46B1     		cbz	r6, .L433
 3544 005c 042E     		cmp	r6, #4
 3545 005e 27D0     		beq	.L434
 3546 0060 0120     		movs	r0, #1
 3547 0062 EEE7     		b	.L431
 3548              	.L430:
 3549 0064 01A9     		add	r1, sp, #4
 3550 0066 0068     		ldr	r0, [r0]
 3551 0068 FFF7FEFF 		bl	TIM_OC2_SetConfig
 3552 006c F5E7     		b	.L432
 3553              	.L433:
 3554 006e 2B6A     		ldr	r3, [r5, #32]
 3555 0070 EA69     		ldr	r2, [r5, #28]
 3556 0072 A969     		ldr	r1, [r5, #24]
 3557 0074 2068     		ldr	r0, [r4]
 3558 0076 FFF7FEFF 		bl	TIM_TI1_SetConfig
 3559 007a 2268     		ldr	r2, [r4]
 3560 007c 9369     		ldr	r3, [r2, #24]
 3561 007e 23F00C03 		bic	r3, r3, #12
 3562 0082 9361     		str	r3, [r2, #24]
 3563 0084 2268     		ldr	r2, [r4]
 3564 0086 9368     		ldr	r3, [r2, #8]
 3565 0088 23F07003 		bic	r3, r3, #112
 3566 008c 9360     		str	r3, [r2, #8]
 3567 008e 2268     		ldr	r2, [r4]
 3568 0090 9368     		ldr	r3, [r2, #8]
 3569 0092 43F05003 		orr	r3, r3, #80
 3570 0096 9360     		str	r3, [r2, #8]
 3571 0098 2268     		ldr	r2, [r4]
 3572 009a 9368     		ldr	r3, [r2, #8]
 3573 009c 23F00703 		bic	r3, r3, #7
 3574 00a0 9360     		str	r3, [r2, #8]
 3575 00a2 2268     		ldr	r2, [r4]
 3576 00a4 9368     		ldr	r3, [r2, #8]
 3577 00a6 43F00603 		orr	r3, r3, #6
 3578 00aa 9360     		str	r3, [r2, #8]
 3579 00ac 0020     		movs	r0, #0
 3580 00ae C8E7     		b	.L431
 3581              	.L434:
 3582 00b0 2B6A     		ldr	r3, [r5, #32]
 3583 00b2 EA69     		ldr	r2, [r5, #28]
 3584 00b4 A969     		ldr	r1, [r5, #24]
 3585 00b6 2068     		ldr	r0, [r4]
 3586 00b8 FFF7FEFF 		bl	TIM_TI2_SetConfig
 3587 00bc 2268     		ldr	r2, [r4]
ARM GAS  /tmp/cc01cbqV.s 			page 61


 3588 00be 9369     		ldr	r3, [r2, #24]
 3589 00c0 23F44063 		bic	r3, r3, #3072
 3590 00c4 9361     		str	r3, [r2, #24]
 3591 00c6 2268     		ldr	r2, [r4]
 3592 00c8 9368     		ldr	r3, [r2, #8]
 3593 00ca 23F07003 		bic	r3, r3, #112
 3594 00ce 9360     		str	r3, [r2, #8]
 3595 00d0 2268     		ldr	r2, [r4]
 3596 00d2 9368     		ldr	r3, [r2, #8]
 3597 00d4 43F06003 		orr	r3, r3, #96
 3598 00d8 9360     		str	r3, [r2, #8]
 3599 00da 2268     		ldr	r2, [r4]
 3600 00dc 9368     		ldr	r3, [r2, #8]
 3601 00de 23F00703 		bic	r3, r3, #7
 3602 00e2 9360     		str	r3, [r2, #8]
 3603 00e4 2268     		ldr	r2, [r4]
 3604 00e6 9368     		ldr	r3, [r2, #8]
 3605 00e8 43F00603 		orr	r3, r3, #6
 3606 00ec 9360     		str	r3, [r2, #8]
 3607 00ee 0020     		movs	r0, #0
 3608 00f0 A7E7     		b	.L431
 3609              	.L435:
 3610 00f2 0120     		movs	r0, #1
 3611 00f4 7047     		bx	lr
 3612              	.L436:
 3613 00f6 0220     		movs	r0, #2
 3614 00f8 A9E7     		b	.L428
 3616              		.section	.text.TIM_ETR_SetConfig,"ax",%progbits
 3617              		.align	1
 3618              		.global	TIM_ETR_SetConfig
 3619              		.syntax unified
 3620              		.thumb
 3621              		.thumb_func
 3622              		.fpu fpv4-sp-d16
 3624              	TIM_ETR_SetConfig:
 3625              		@ args = 0, pretend = 0, frame = 0
 3626              		@ frame_needed = 0, uses_anonymous_args = 0
 3627              		@ link register save eliminated.
 3628 0000 10B4     		push	{r4}
 3629 0002 8468     		ldr	r4, [r0, #8]
 3630 0004 24F47F4C 		bic	ip, r4, #65280
 3631 0008 42EA0322 		orr	r2, r2, r3, lsl #8
 3632 000c 0A43     		orrs	r2, r2, r1
 3633 000e 42EA0C02 		orr	r2, r2, ip
 3634 0012 8260     		str	r2, [r0, #8]
 3635 0014 5DF8044B 		ldr	r4, [sp], #4
 3636 0018 7047     		bx	lr
 3638              		.section	.text.HAL_TIM_ConfigOCrefClear,"ax",%progbits
 3639              		.align	1
 3640              		.global	HAL_TIM_ConfigOCrefClear
 3641              		.syntax unified
 3642              		.thumb
 3643              		.thumb_func
 3644              		.fpu fpv4-sp-d16
 3646              	HAL_TIM_ConfigOCrefClear:
 3647              		@ args = 0, pretend = 0, frame = 0
 3648              		@ frame_needed = 0, uses_anonymous_args = 0
ARM GAS  /tmp/cc01cbqV.s 			page 62


 3649 0000 90F83C30 		ldrb	r3, [r0, #60]	@ zero_extendqisi2
 3650 0004 012B     		cmp	r3, #1
 3651 0006 76D0     		beq	.L459
 3652 0008 70B5     		push	{r4, r5, r6, lr}
 3653 000a 0446     		mov	r4, r0
 3654 000c 0D46     		mov	r5, r1
 3655 000e 1646     		mov	r6, r2
 3656 0010 0123     		movs	r3, #1
 3657 0012 80F83C30 		strb	r3, [r0, #60]
 3658 0016 0223     		movs	r3, #2
 3659 0018 80F83D30 		strb	r3, [r0, #61]
 3660 001c 4B68     		ldr	r3, [r1, #4]
 3661 001e 4BB1     		cbz	r3, .L445
 3662 0020 012B     		cmp	r3, #1
 3663 0022 17D0     		beq	.L446
 3664 0024 0120     		movs	r0, #1
 3665              	.L447:
 3666 0026 0123     		movs	r3, #1
 3667 0028 84F83D30 		strb	r3, [r4, #61]
 3668 002c 0023     		movs	r3, #0
 3669 002e 84F83C30 		strb	r3, [r4, #60]
 3670              	.L444:
 3671 0032 70BD     		pop	{r4, r5, r6, pc}
 3672              	.L445:
 3673 0034 0268     		ldr	r2, [r0]
 3674 0036 9368     		ldr	r3, [r2, #8]
 3675 0038 23F47F43 		bic	r3, r3, #65280
 3676 003c 9360     		str	r3, [r2, #8]
 3677              	.L448:
 3678 003e 0C2E     		cmp	r6, #12
 3679 0040 57D8     		bhi	.L460
 3680 0042 DFE806F0 		tbb	[pc, r6]
 3681              	.L451:
 3682 0046 16       		.byte	(.L454-.L451)/2
 3683 0047 56       		.byte	(.L460-.L451)/2
 3684 0048 56       		.byte	(.L460-.L451)/2
 3685 0049 56       		.byte	(.L460-.L451)/2
 3686 004a 26       		.byte	(.L453-.L451)/2
 3687 004b 56       		.byte	(.L460-.L451)/2
 3688 004c 56       		.byte	(.L460-.L451)/2
 3689 004d 56       		.byte	(.L460-.L451)/2
 3690 004e 36       		.byte	(.L452-.L451)/2
 3691 004f 56       		.byte	(.L460-.L451)/2
 3692 0050 56       		.byte	(.L460-.L451)/2
 3693 0051 56       		.byte	(.L460-.L451)/2
 3694 0052 46       		.byte	(.L450-.L451)/2
 3695 0053 00       		.p2align 1
 3696              	.L446:
 3697 0054 C968     		ldr	r1, [r1, #12]
 3698 0056 31B1     		cbz	r1, .L449
 3699 0058 0120     		movs	r0, #1
 3700 005a 84F83D00 		strb	r0, [r4, #61]
 3701 005e 0023     		movs	r3, #0
 3702 0060 84F83C30 		strb	r3, [r4, #60]
 3703 0064 E5E7     		b	.L444
 3704              	.L449:
 3705 0066 2B69     		ldr	r3, [r5, #16]
ARM GAS  /tmp/cc01cbqV.s 			page 63


 3706 0068 AA68     		ldr	r2, [r5, #8]
 3707 006a 0068     		ldr	r0, [r0]
 3708 006c FFF7FEFF 		bl	TIM_ETR_SetConfig
 3709 0070 E5E7     		b	.L448
 3710              	.L454:
 3711 0072 2B68     		ldr	r3, [r5]
 3712 0074 33B1     		cbz	r3, .L455
 3713 0076 2268     		ldr	r2, [r4]
 3714 0078 9369     		ldr	r3, [r2, #24]
 3715 007a 43F08003 		orr	r3, r3, #128
 3716 007e 9361     		str	r3, [r2, #24]
 3717 0080 0020     		movs	r0, #0
 3718 0082 D0E7     		b	.L447
 3719              	.L455:
 3720 0084 2268     		ldr	r2, [r4]
 3721 0086 9369     		ldr	r3, [r2, #24]
 3722 0088 23F08003 		bic	r3, r3, #128
 3723 008c 9361     		str	r3, [r2, #24]
 3724 008e 0020     		movs	r0, #0
 3725 0090 C9E7     		b	.L447
 3726              	.L453:
 3727 0092 2B68     		ldr	r3, [r5]
 3728 0094 33B1     		cbz	r3, .L456
 3729 0096 2268     		ldr	r2, [r4]
 3730 0098 9369     		ldr	r3, [r2, #24]
 3731 009a 43F40043 		orr	r3, r3, #32768
 3732 009e 9361     		str	r3, [r2, #24]
 3733 00a0 0020     		movs	r0, #0
 3734 00a2 C0E7     		b	.L447
 3735              	.L456:
 3736 00a4 2268     		ldr	r2, [r4]
 3737 00a6 9369     		ldr	r3, [r2, #24]
 3738 00a8 23F40043 		bic	r3, r3, #32768
 3739 00ac 9361     		str	r3, [r2, #24]
 3740 00ae 0020     		movs	r0, #0
 3741 00b0 B9E7     		b	.L447
 3742              	.L452:
 3743 00b2 2B68     		ldr	r3, [r5]
 3744 00b4 33B1     		cbz	r3, .L457
 3745 00b6 2268     		ldr	r2, [r4]
 3746 00b8 D369     		ldr	r3, [r2, #28]
 3747 00ba 43F08003 		orr	r3, r3, #128
 3748 00be D361     		str	r3, [r2, #28]
 3749 00c0 0020     		movs	r0, #0
 3750 00c2 B0E7     		b	.L447
 3751              	.L457:
 3752 00c4 2268     		ldr	r2, [r4]
 3753 00c6 D369     		ldr	r3, [r2, #28]
 3754 00c8 23F08003 		bic	r3, r3, #128
 3755 00cc D361     		str	r3, [r2, #28]
 3756 00ce 0020     		movs	r0, #0
 3757 00d0 A9E7     		b	.L447
 3758              	.L450:
 3759 00d2 2B68     		ldr	r3, [r5]
 3760 00d4 33B1     		cbz	r3, .L458
 3761 00d6 2268     		ldr	r2, [r4]
 3762 00d8 D369     		ldr	r3, [r2, #28]
ARM GAS  /tmp/cc01cbqV.s 			page 64


 3763 00da 43F40043 		orr	r3, r3, #32768
 3764 00de D361     		str	r3, [r2, #28]
 3765 00e0 0020     		movs	r0, #0
 3766 00e2 A0E7     		b	.L447
 3767              	.L458:
 3768 00e4 2268     		ldr	r2, [r4]
 3769 00e6 D369     		ldr	r3, [r2, #28]
 3770 00e8 23F40043 		bic	r3, r3, #32768
 3771 00ec D361     		str	r3, [r2, #28]
 3772 00ee 0020     		movs	r0, #0
 3773 00f0 99E7     		b	.L447
 3774              	.L460:
 3775 00f2 0020     		movs	r0, #0
 3776 00f4 97E7     		b	.L447
 3777              	.L459:
 3778 00f6 0220     		movs	r0, #2
 3779 00f8 7047     		bx	lr
 3781              		.section	.text.HAL_TIM_ConfigClockSource,"ax",%progbits
 3782              		.align	1
 3783              		.global	HAL_TIM_ConfigClockSource
 3784              		.syntax unified
 3785              		.thumb
 3786              		.thumb_func
 3787              		.fpu fpv4-sp-d16
 3789              	HAL_TIM_ConfigClockSource:
 3790              		@ args = 0, pretend = 0, frame = 0
 3791              		@ frame_needed = 0, uses_anonymous_args = 0
 3792 0000 90F83C30 		ldrb	r3, [r0, #60]	@ zero_extendqisi2
 3793 0004 012B     		cmp	r3, #1
 3794 0006 78D0     		beq	.L476
 3795 0008 10B5     		push	{r4, lr}
 3796 000a 0446     		mov	r4, r0
 3797 000c 0123     		movs	r3, #1
 3798 000e 80F83C30 		strb	r3, [r0, #60]
 3799 0012 0223     		movs	r3, #2
 3800 0014 80F83D30 		strb	r3, [r0, #61]
 3801 0018 0268     		ldr	r2, [r0]
 3802 001a 9368     		ldr	r3, [r2, #8]
 3803 001c 23F47F43 		bic	r3, r3, #65280
 3804 0020 23F07703 		bic	r3, r3, #119
 3805 0024 9360     		str	r3, [r2, #8]
 3806 0026 0B68     		ldr	r3, [r1]
 3807 0028 602B     		cmp	r3, #96
 3808 002a 4CD0     		beq	.L467
 3809 002c 29D8     		bhi	.L468
 3810 002e 402B     		cmp	r3, #64
 3811 0030 54D0     		beq	.L469
 3812 0032 0CD9     		bls	.L483
 3813 0034 502B     		cmp	r3, #80
 3814 0036 22D1     		bne	.L484
 3815 0038 CA68     		ldr	r2, [r1, #12]
 3816 003a 4968     		ldr	r1, [r1, #4]
 3817 003c 0068     		ldr	r0, [r0]
 3818 003e FFF7FEFF 		bl	TIM_TI1_ConfigInputStage
 3819 0042 5021     		movs	r1, #80
 3820 0044 2068     		ldr	r0, [r4]
 3821 0046 FFF7FEFF 		bl	TIM_ITRx_SetConfig
ARM GAS  /tmp/cc01cbqV.s 			page 65


 3822 004a 0020     		movs	r0, #0
 3823 004c 05E0     		b	.L473
 3824              	.L483:
 3825 004e 202B     		cmp	r3, #32
 3826 0050 0DD0     		beq	.L471
 3827 0052 09D9     		bls	.L485
 3828 0054 302B     		cmp	r3, #48
 3829 0056 0AD0     		beq	.L471
 3830 0058 0120     		movs	r0, #1
 3831              	.L473:
 3832 005a 0123     		movs	r3, #1
 3833 005c 84F83D30 		strb	r3, [r4, #61]
 3834 0060 0023     		movs	r3, #0
 3835 0062 84F83C30 		strb	r3, [r4, #60]
 3836 0066 10BD     		pop	{r4, pc}
 3837              	.L485:
 3838 0068 0BB1     		cbz	r3, .L471
 3839 006a 102B     		cmp	r3, #16
 3840 006c 05D1     		bne	.L486
 3841              	.L471:
 3842 006e 1946     		mov	r1, r3
 3843 0070 2068     		ldr	r0, [r4]
 3844 0072 FFF7FEFF 		bl	TIM_ITRx_SetConfig
 3845 0076 0020     		movs	r0, #0
 3846 0078 EFE7     		b	.L473
 3847              	.L486:
 3848 007a 0120     		movs	r0, #1
 3849 007c EDE7     		b	.L473
 3850              	.L484:
 3851 007e 0120     		movs	r0, #1
 3852 0080 EBE7     		b	.L473
 3853              	.L468:
 3854 0082 B3F5805F 		cmp	r3, #4096
 3855 0086 34D0     		beq	.L477
 3856 0088 B3F5005F 		cmp	r3, #8192
 3857 008c 0CD1     		bne	.L487
 3858 008e CB68     		ldr	r3, [r1, #12]
 3859 0090 4A68     		ldr	r2, [r1, #4]
 3860 0092 8968     		ldr	r1, [r1, #8]
 3861 0094 0068     		ldr	r0, [r0]
 3862 0096 FFF7FEFF 		bl	TIM_ETR_SetConfig
 3863 009a 2268     		ldr	r2, [r4]
 3864 009c 9368     		ldr	r3, [r2, #8]
 3865 009e 43F48043 		orr	r3, r3, #16384
 3866 00a2 9360     		str	r3, [r2, #8]
 3867 00a4 0020     		movs	r0, #0
 3868 00a6 D8E7     		b	.L473
 3869              	.L487:
 3870 00a8 702B     		cmp	r3, #112
 3871 00aa 24D1     		bne	.L478
 3872 00ac CB68     		ldr	r3, [r1, #12]
 3873 00ae 4A68     		ldr	r2, [r1, #4]
 3874 00b0 8968     		ldr	r1, [r1, #8]
 3875 00b2 0068     		ldr	r0, [r0]
 3876 00b4 FFF7FEFF 		bl	TIM_ETR_SetConfig
 3877 00b8 2268     		ldr	r2, [r4]
 3878 00ba 9368     		ldr	r3, [r2, #8]
ARM GAS  /tmp/cc01cbqV.s 			page 66


 3879 00bc 43F07703 		orr	r3, r3, #119
 3880 00c0 9360     		str	r3, [r2, #8]
 3881 00c2 0020     		movs	r0, #0
 3882 00c4 C9E7     		b	.L473
 3883              	.L467:
 3884 00c6 CA68     		ldr	r2, [r1, #12]
 3885 00c8 4968     		ldr	r1, [r1, #4]
 3886 00ca 0068     		ldr	r0, [r0]
 3887 00cc FFF7FEFF 		bl	TIM_TI2_ConfigInputStage
 3888 00d0 6021     		movs	r1, #96
 3889 00d2 2068     		ldr	r0, [r4]
 3890 00d4 FFF7FEFF 		bl	TIM_ITRx_SetConfig
 3891 00d8 0020     		movs	r0, #0
 3892 00da BEE7     		b	.L473
 3893              	.L469:
 3894 00dc CA68     		ldr	r2, [r1, #12]
 3895 00de 4968     		ldr	r1, [r1, #4]
 3896 00e0 0068     		ldr	r0, [r0]
 3897 00e2 FFF7FEFF 		bl	TIM_TI1_ConfigInputStage
 3898 00e6 4021     		movs	r1, #64
 3899 00e8 2068     		ldr	r0, [r4]
 3900 00ea FFF7FEFF 		bl	TIM_ITRx_SetConfig
 3901 00ee 0020     		movs	r0, #0
 3902 00f0 B3E7     		b	.L473
 3903              	.L477:
 3904 00f2 0020     		movs	r0, #0
 3905 00f4 B1E7     		b	.L473
 3906              	.L478:
 3907 00f6 0120     		movs	r0, #1
 3908 00f8 AFE7     		b	.L473
 3909              	.L476:
 3910 00fa 0220     		movs	r0, #2
 3911 00fc 7047     		bx	lr
 3913              		.section	.text.TIM_SlaveTimer_SetConfig,"ax",%progbits
 3914              		.align	1
 3915              		.syntax unified
 3916              		.thumb
 3917              		.thumb_func
 3918              		.fpu fpv4-sp-d16
 3920              	TIM_SlaveTimer_SetConfig:
 3921              		@ args = 0, pretend = 0, frame = 0
 3922              		@ frame_needed = 0, uses_anonymous_args = 0
 3923 0000 10B5     		push	{r4, lr}
 3924 0002 0468     		ldr	r4, [r0]
 3925 0004 A268     		ldr	r2, [r4, #8]
 3926 0006 22F07002 		bic	r2, r2, #112
 3927 000a 4B68     		ldr	r3, [r1, #4]
 3928 000c 1343     		orrs	r3, r3, r2
 3929 000e 23F00703 		bic	r3, r3, #7
 3930 0012 0A68     		ldr	r2, [r1]
 3931 0014 1343     		orrs	r3, r3, r2
 3932 0016 A360     		str	r3, [r4, #8]
 3933 0018 4B68     		ldr	r3, [r1, #4]
 3934 001a 502B     		cmp	r3, #80
 3935 001c 32D0     		beq	.L489
 3936 001e 0BD9     		bls	.L503
 3937 0020 602B     		cmp	r3, #96
ARM GAS  /tmp/cc01cbqV.s 			page 67


 3938 0022 36D0     		beq	.L494
 3939 0024 702B     		cmp	r3, #112
 3940 0026 43D1     		bne	.L500
 3941 0028 0B69     		ldr	r3, [r1, #16]
 3942 002a 8A68     		ldr	r2, [r1, #8]
 3943 002c C968     		ldr	r1, [r1, #12]
 3944 002e 0068     		ldr	r0, [r0]
 3945 0030 FFF7FEFF 		bl	TIM_ETR_SetConfig
 3946 0034 0020     		movs	r0, #0
 3947 0036 0FE0     		b	.L492
 3948              	.L503:
 3949 0038 402B     		cmp	r3, #64
 3950 003a 0ED0     		beq	.L491
 3951 003c 01D9     		bls	.L504
 3952 003e 0120     		movs	r0, #1
 3953 0040 0AE0     		b	.L492
 3954              	.L504:
 3955 0042 202B     		cmp	r3, #32
 3956 0044 2CD0     		beq	.L496
 3957 0046 03D9     		bls	.L505
 3958 0048 302B     		cmp	r3, #48
 3959 004a 2FD1     		bne	.L499
 3960 004c 0020     		movs	r0, #0
 3961 004e 03E0     		b	.L492
 3962              	.L505:
 3963 0050 43B3     		cbz	r3, .L497
 3964 0052 102B     		cmp	r3, #16
 3965 0054 28D1     		bne	.L498
 3966 0056 0020     		movs	r0, #0
 3967              	.L492:
 3968 0058 10BD     		pop	{r4, pc}
 3969              	.L491:
 3970 005a 0B68     		ldr	r3, [r1]
 3971 005c 052B     		cmp	r3, #5
 3972 005e 29D0     		beq	.L501
 3973 0060 0368     		ldr	r3, [r0]
 3974 0062 1C6A     		ldr	r4, [r3, #32]
 3975 0064 1A6A     		ldr	r2, [r3, #32]
 3976 0066 22F00102 		bic	r2, r2, #1
 3977 006a 1A62     		str	r2, [r3, #32]
 3978 006c 0268     		ldr	r2, [r0]
 3979 006e 9369     		ldr	r3, [r2, #24]
 3980 0070 23F0F003 		bic	r3, r3, #240
 3981 0074 0969     		ldr	r1, [r1, #16]
 3982 0076 43EA0113 		orr	r3, r3, r1, lsl #4
 3983 007a 9361     		str	r3, [r2, #24]
 3984 007c 0368     		ldr	r3, [r0]
 3985 007e 1C62     		str	r4, [r3, #32]
 3986 0080 0020     		movs	r0, #0
 3987 0082 E9E7     		b	.L492
 3988              	.L489:
 3989 0084 0A69     		ldr	r2, [r1, #16]
 3990 0086 8968     		ldr	r1, [r1, #8]
 3991 0088 0068     		ldr	r0, [r0]
 3992 008a FFF7FEFF 		bl	TIM_TI1_ConfigInputStage
 3993 008e 0020     		movs	r0, #0
 3994 0090 E2E7     		b	.L492
ARM GAS  /tmp/cc01cbqV.s 			page 68


 3995              	.L494:
 3996 0092 0A69     		ldr	r2, [r1, #16]
 3997 0094 8968     		ldr	r1, [r1, #8]
 3998 0096 0068     		ldr	r0, [r0]
 3999 0098 FFF7FEFF 		bl	TIM_TI2_ConfigInputStage
 4000 009c 0020     		movs	r0, #0
 4001 009e DBE7     		b	.L492
 4002              	.L496:
 4003 00a0 0020     		movs	r0, #0
 4004 00a2 D9E7     		b	.L492
 4005              	.L497:
 4006 00a4 0020     		movs	r0, #0
 4007 00a6 D7E7     		b	.L492
 4008              	.L498:
 4009 00a8 0120     		movs	r0, #1
 4010 00aa D5E7     		b	.L492
 4011              	.L499:
 4012 00ac 0120     		movs	r0, #1
 4013 00ae D3E7     		b	.L492
 4014              	.L500:
 4015 00b0 0120     		movs	r0, #1
 4016 00b2 D1E7     		b	.L492
 4017              	.L501:
 4018 00b4 0120     		movs	r0, #1
 4019 00b6 CFE7     		b	.L492
 4021              		.section	.text.HAL_TIM_SlaveConfigSynchro,"ax",%progbits
 4022              		.align	1
 4023              		.global	HAL_TIM_SlaveConfigSynchro
 4024              		.syntax unified
 4025              		.thumb
 4026              		.thumb_func
 4027              		.fpu fpv4-sp-d16
 4029              	HAL_TIM_SlaveConfigSynchro:
 4030              		@ args = 0, pretend = 0, frame = 0
 4031              		@ frame_needed = 0, uses_anonymous_args = 0
 4032 0000 90F83C30 		ldrb	r3, [r0, #60]	@ zero_extendqisi2
 4033 0004 012B     		cmp	r3, #1
 4034 0006 22D0     		beq	.L509
 4035 0008 10B5     		push	{r4, lr}
 4036 000a 0446     		mov	r4, r0
 4037 000c 0123     		movs	r3, #1
 4038 000e 80F83C30 		strb	r3, [r0, #60]
 4039 0012 0223     		movs	r3, #2
 4040 0014 80F83D30 		strb	r3, [r0, #61]
 4041 0018 FFF7FEFF 		bl	TIM_SlaveTimer_SetConfig
 4042 001c 80B9     		cbnz	r0, .L514
 4043 001e 2268     		ldr	r2, [r4]
 4044 0020 D368     		ldr	r3, [r2, #12]
 4045 0022 23F04003 		bic	r3, r3, #64
 4046 0026 D360     		str	r3, [r2, #12]
 4047 0028 2268     		ldr	r2, [r4]
 4048 002a D368     		ldr	r3, [r2, #12]
 4049 002c 23F48043 		bic	r3, r3, #16384
 4050 0030 D360     		str	r3, [r2, #12]
 4051 0032 0123     		movs	r3, #1
 4052 0034 84F83D30 		strb	r3, [r4, #61]
 4053 0038 0023     		movs	r3, #0
ARM GAS  /tmp/cc01cbqV.s 			page 69


 4054 003a 84F83C30 		strb	r3, [r4, #60]
 4055              	.L507:
 4056 003e 10BD     		pop	{r4, pc}
 4057              	.L514:
 4058 0040 0120     		movs	r0, #1
 4059 0042 84F83D00 		strb	r0, [r4, #61]
 4060 0046 0023     		movs	r3, #0
 4061 0048 84F83C30 		strb	r3, [r4, #60]
 4062 004c F7E7     		b	.L507
 4063              	.L509:
 4064 004e 0220     		movs	r0, #2
 4065 0050 7047     		bx	lr
 4067              		.section	.text.HAL_TIM_SlaveConfigSynchro_IT,"ax",%progbits
 4068              		.align	1
 4069              		.global	HAL_TIM_SlaveConfigSynchro_IT
 4070              		.syntax unified
 4071              		.thumb
 4072              		.thumb_func
 4073              		.fpu fpv4-sp-d16
 4075              	HAL_TIM_SlaveConfigSynchro_IT:
 4076              		@ args = 0, pretend = 0, frame = 0
 4077              		@ frame_needed = 0, uses_anonymous_args = 0
 4078 0000 90F83C30 		ldrb	r3, [r0, #60]	@ zero_extendqisi2
 4079 0004 012B     		cmp	r3, #1
 4080 0006 22D0     		beq	.L518
 4081 0008 10B5     		push	{r4, lr}
 4082 000a 0446     		mov	r4, r0
 4083 000c 0123     		movs	r3, #1
 4084 000e 80F83C30 		strb	r3, [r0, #60]
 4085 0012 0223     		movs	r3, #2
 4086 0014 80F83D30 		strb	r3, [r0, #61]
 4087 0018 FFF7FEFF 		bl	TIM_SlaveTimer_SetConfig
 4088 001c 80B9     		cbnz	r0, .L523
 4089 001e 2268     		ldr	r2, [r4]
 4090 0020 D368     		ldr	r3, [r2, #12]
 4091 0022 43F04003 		orr	r3, r3, #64
 4092 0026 D360     		str	r3, [r2, #12]
 4093 0028 2268     		ldr	r2, [r4]
 4094 002a D368     		ldr	r3, [r2, #12]
 4095 002c 23F48043 		bic	r3, r3, #16384
 4096 0030 D360     		str	r3, [r2, #12]
 4097 0032 0123     		movs	r3, #1
 4098 0034 84F83D30 		strb	r3, [r4, #61]
 4099 0038 0023     		movs	r3, #0
 4100 003a 84F83C30 		strb	r3, [r4, #60]
 4101              	.L516:
 4102 003e 10BD     		pop	{r4, pc}
 4103              	.L523:
 4104 0040 0120     		movs	r0, #1
 4105 0042 84F83D00 		strb	r0, [r4, #61]
 4106 0046 0023     		movs	r3, #0
 4107 0048 84F83C30 		strb	r3, [r4, #60]
 4108 004c F7E7     		b	.L516
 4109              	.L518:
 4110 004e 0220     		movs	r0, #2
 4111 0050 7047     		bx	lr
 4113              		.section	.text.TIM_CCxChannelCmd,"ax",%progbits
ARM GAS  /tmp/cc01cbqV.s 			page 70


 4114              		.align	1
 4115              		.global	TIM_CCxChannelCmd
 4116              		.syntax unified
 4117              		.thumb
 4118              		.thumb_func
 4119              		.fpu fpv4-sp-d16
 4121              	TIM_CCxChannelCmd:
 4122              		@ args = 0, pretend = 0, frame = 0
 4123              		@ frame_needed = 0, uses_anonymous_args = 0
 4124              		@ link register save eliminated.
 4125 0000 01F01F01 		and	r1, r1, #31
 4126 0004 0123     		movs	r3, #1
 4127 0006 03FA01FC 		lsl	ip, r3, r1
 4128 000a 036A     		ldr	r3, [r0, #32]
 4129 000c 23EA0C03 		bic	r3, r3, ip
 4130 0010 0362     		str	r3, [r0, #32]
 4131 0012 036A     		ldr	r3, [r0, #32]
 4132 0014 02FA01F1 		lsl	r1, r2, r1
 4133 0018 0B43     		orrs	r3, r3, r1
 4134 001a 0362     		str	r3, [r0, #32]
 4135 001c 7047     		bx	lr
 4137              		.section	.text.HAL_TIM_OC_Start,"ax",%progbits
 4138              		.align	1
 4139              		.global	HAL_TIM_OC_Start
 4140              		.syntax unified
 4141              		.thumb
 4142              		.thumb_func
 4143              		.fpu fpv4-sp-d16
 4145              	HAL_TIM_OC_Start:
 4146              		@ args = 0, pretend = 0, frame = 0
 4147              		@ frame_needed = 0, uses_anonymous_args = 0
 4148 0000 10B5     		push	{r4, lr}
 4149 0002 0446     		mov	r4, r0
 4150 0004 0846     		mov	r0, r1
 4151 0006 0029     		cmp	r1, #0
 4152 0008 42D1     		bne	.L526
 4153 000a 94F83E30 		ldrb	r3, [r4, #62]	@ zero_extendqisi2
 4154 000e DBB2     		uxtb	r3, r3
 4155 0010 013B     		subs	r3, r3, #1
 4156 0012 18BF     		it	ne
 4157 0014 0123     		movne	r3, #1
 4158              	.L527:
 4159 0016 002B     		cmp	r3, #0
 4160 0018 6ED1     		bne	.L539
 4161 001a 0028     		cmp	r0, #0
 4162 001c 51D1     		bne	.L531
 4163 001e 0223     		movs	r3, #2
 4164 0020 84F83E30 		strb	r3, [r4, #62]
 4165              	.L532:
 4166 0024 0122     		movs	r2, #1
 4167 0026 0146     		mov	r1, r0
 4168 0028 2068     		ldr	r0, [r4]
 4169 002a FFF7FEFF 		bl	TIM_CCxChannelCmd
 4170 002e 2368     		ldr	r3, [r4]
 4171 0030 334A     		ldr	r2, .L546
 4172 0032 9342     		cmp	r3, r2
 4173 0034 03D0     		beq	.L535
ARM GAS  /tmp/cc01cbqV.s 			page 71


 4174 0036 02F58062 		add	r2, r2, #1024
 4175 003a 9342     		cmp	r3, r2
 4176 003c 03D1     		bne	.L536
 4177              	.L535:
 4178 003e 5A6C     		ldr	r2, [r3, #68]
 4179 0040 42F40042 		orr	r2, r2, #32768
 4180 0044 5A64     		str	r2, [r3, #68]
 4181              	.L536:
 4182 0046 2368     		ldr	r3, [r4]
 4183 0048 2D4A     		ldr	r2, .L546
 4184 004a 9342     		cmp	r3, r2
 4185 004c 49D0     		beq	.L537
 4186 004e B3F1804F 		cmp	r3, #1073741824
 4187 0052 46D0     		beq	.L537
 4188 0054 A2F57C42 		sub	r2, r2, #64512
 4189 0058 9342     		cmp	r3, r2
 4190 005a 42D0     		beq	.L537
 4191 005c 02F58062 		add	r2, r2, #1024
 4192 0060 9342     		cmp	r3, r2
 4193 0062 3ED0     		beq	.L537
 4194 0064 02F58062 		add	r2, r2, #1024
 4195 0068 9342     		cmp	r3, r2
 4196 006a 3AD0     		beq	.L537
 4197 006c 02F57842 		add	r2, r2, #63488
 4198 0070 9342     		cmp	r3, r2
 4199 0072 36D0     		beq	.L537
 4200 0074 02F57052 		add	r2, r2, #15360
 4201 0078 9342     		cmp	r3, r2
 4202 007a 32D0     		beq	.L537
 4203 007c A2F59432 		sub	r2, r2, #75776
 4204 0080 9342     		cmp	r3, r2
 4205 0082 2ED0     		beq	.L537
 4206 0084 1A68     		ldr	r2, [r3]
 4207 0086 42F00102 		orr	r2, r2, #1
 4208 008a 1A60     		str	r2, [r3]
 4209 008c 0020     		movs	r0, #0
 4210 008e 32E0     		b	.L530
 4211              	.L526:
 4212 0090 0429     		cmp	r1, #4
 4213 0092 08D0     		beq	.L542
 4214 0094 0829     		cmp	r1, #8
 4215 0096 0DD0     		beq	.L543
 4216 0098 94F84130 		ldrb	r3, [r4, #65]	@ zero_extendqisi2
 4217 009c DBB2     		uxtb	r3, r3
 4218 009e 013B     		subs	r3, r3, #1
 4219 00a0 18BF     		it	ne
 4220 00a2 0123     		movne	r3, #1
 4221 00a4 B7E7     		b	.L527
 4222              	.L542:
 4223 00a6 94F83F30 		ldrb	r3, [r4, #63]	@ zero_extendqisi2
 4224 00aa DBB2     		uxtb	r3, r3
 4225 00ac 013B     		subs	r3, r3, #1
 4226 00ae 18BF     		it	ne
 4227 00b0 0123     		movne	r3, #1
 4228 00b2 B0E7     		b	.L527
 4229              	.L543:
 4230 00b4 94F84030 		ldrb	r3, [r4, #64]	@ zero_extendqisi2
ARM GAS  /tmp/cc01cbqV.s 			page 72


 4231 00b8 DBB2     		uxtb	r3, r3
 4232 00ba 013B     		subs	r3, r3, #1
 4233 00bc 18BF     		it	ne
 4234 00be 0123     		movne	r3, #1
 4235 00c0 A9E7     		b	.L527
 4236              	.L531:
 4237 00c2 0428     		cmp	r0, #4
 4238 00c4 05D0     		beq	.L544
 4239 00c6 0828     		cmp	r0, #8
 4240 00c8 07D0     		beq	.L545
 4241 00ca 0223     		movs	r3, #2
 4242 00cc 84F84130 		strb	r3, [r4, #65]
 4243 00d0 A8E7     		b	.L532
 4244              	.L544:
 4245 00d2 0223     		movs	r3, #2
 4246 00d4 84F83F30 		strb	r3, [r4, #63]
 4247 00d8 A4E7     		b	.L532
 4248              	.L545:
 4249 00da 0223     		movs	r3, #2
 4250 00dc 84F84030 		strb	r3, [r4, #64]
 4251 00e0 A0E7     		b	.L532
 4252              	.L537:
 4253 00e2 9A68     		ldr	r2, [r3, #8]
 4254 00e4 02F00702 		and	r2, r2, #7
 4255 00e8 062A     		cmp	r2, #6
 4256 00ea 07D0     		beq	.L540
 4257 00ec 1A68     		ldr	r2, [r3]
 4258 00ee 42F00102 		orr	r2, r2, #1
 4259 00f2 1A60     		str	r2, [r3]
 4260 00f4 0020     		movs	r0, #0
 4261              	.L530:
 4262 00f6 10BD     		pop	{r4, pc}
 4263              	.L539:
 4264 00f8 0120     		movs	r0, #1
 4265 00fa FCE7     		b	.L530
 4266              	.L540:
 4267 00fc 0020     		movs	r0, #0
 4268 00fe FAE7     		b	.L530
 4269              	.L547:
 4270              		.align	2
 4271              	.L546:
 4272 0100 00000140 		.word	1073807360
 4274              		.section	.text.HAL_TIM_OC_Stop,"ax",%progbits
 4275              		.align	1
 4276              		.global	HAL_TIM_OC_Stop
 4277              		.syntax unified
 4278              		.thumb
 4279              		.thumb_func
 4280              		.fpu fpv4-sp-d16
 4282              	HAL_TIM_OC_Stop:
 4283              		@ args = 0, pretend = 0, frame = 0
 4284              		@ frame_needed = 0, uses_anonymous_args = 0
 4285 0000 38B5     		push	{r3, r4, r5, lr}
 4286 0002 0446     		mov	r4, r0
 4287 0004 0D46     		mov	r5, r1
 4288 0006 0022     		movs	r2, #0
 4289 0008 0068     		ldr	r0, [r0]
ARM GAS  /tmp/cc01cbqV.s 			page 73


 4290 000a FFF7FEFF 		bl	TIM_CCxChannelCmd
 4291 000e 2368     		ldr	r3, [r4]
 4292 0010 1D4A     		ldr	r2, .L559
 4293 0012 9342     		cmp	r3, r2
 4294 0014 18D0     		beq	.L549
 4295 0016 02F58062 		add	r2, r2, #1024
 4296 001a 9342     		cmp	r3, r2
 4297 001c 14D0     		beq	.L549
 4298              	.L550:
 4299 001e 2368     		ldr	r3, [r4]
 4300 0020 196A     		ldr	r1, [r3, #32]
 4301 0022 41F21112 		movw	r2, #4369
 4302 0026 1142     		tst	r1, r2
 4303 0028 08D1     		bne	.L551
 4304 002a 196A     		ldr	r1, [r3, #32]
 4305 002c 40F24442 		movw	r2, #1092
 4306 0030 1142     		tst	r1, r2
 4307 0032 03D1     		bne	.L551
 4308 0034 1A68     		ldr	r2, [r3]
 4309 0036 22F00102 		bic	r2, r2, #1
 4310 003a 1A60     		str	r2, [r3]
 4311              	.L551:
 4312 003c 9DB9     		cbnz	r5, .L552
 4313 003e 0123     		movs	r3, #1
 4314 0040 84F83E30 		strb	r3, [r4, #62]
 4315              	.L553:
 4316 0044 0020     		movs	r0, #0
 4317 0046 38BD     		pop	{r3, r4, r5, pc}
 4318              	.L549:
 4319 0048 196A     		ldr	r1, [r3, #32]
 4320 004a 41F21112 		movw	r2, #4369
 4321 004e 1142     		tst	r1, r2
 4322 0050 E5D1     		bne	.L550
 4323 0052 196A     		ldr	r1, [r3, #32]
 4324 0054 40F24442 		movw	r2, #1092
 4325 0058 1142     		tst	r1, r2
 4326 005a E0D1     		bne	.L550
 4327 005c 5A6C     		ldr	r2, [r3, #68]
 4328 005e 22F40042 		bic	r2, r2, #32768
 4329 0062 5A64     		str	r2, [r3, #68]
 4330 0064 DBE7     		b	.L550
 4331              	.L552:
 4332 0066 042D     		cmp	r5, #4
 4333 0068 05D0     		beq	.L557
 4334 006a 082D     		cmp	r5, #8
 4335 006c 07D0     		beq	.L558
 4336 006e 0123     		movs	r3, #1
 4337 0070 84F84130 		strb	r3, [r4, #65]
 4338 0074 E6E7     		b	.L553
 4339              	.L557:
 4340 0076 0123     		movs	r3, #1
 4341 0078 84F83F30 		strb	r3, [r4, #63]
 4342 007c E2E7     		b	.L553
 4343              	.L558:
 4344 007e 0123     		movs	r3, #1
 4345 0080 84F84030 		strb	r3, [r4, #64]
 4346 0084 DEE7     		b	.L553
ARM GAS  /tmp/cc01cbqV.s 			page 74


 4347              	.L560:
 4348 0086 00BF     		.align	2
 4349              	.L559:
 4350 0088 00000140 		.word	1073807360
 4352              		.section	.text.HAL_TIM_OC_Start_IT,"ax",%progbits
 4353              		.align	1
 4354              		.global	HAL_TIM_OC_Start_IT
 4355              		.syntax unified
 4356              		.thumb
 4357              		.thumb_func
 4358              		.fpu fpv4-sp-d16
 4360              	HAL_TIM_OC_Start_IT:
 4361              		@ args = 0, pretend = 0, frame = 0
 4362              		@ frame_needed = 0, uses_anonymous_args = 0
 4363 0000 10B5     		push	{r4, lr}
 4364 0002 0446     		mov	r4, r0
 4365 0004 0846     		mov	r0, r1
 4366 0006 C1B9     		cbnz	r1, .L562
 4367 0008 94F83E30 		ldrb	r3, [r4, #62]	@ zero_extendqisi2
 4368 000c DBB2     		uxtb	r3, r3
 4369 000e 013B     		subs	r3, r3, #1
 4370 0010 18BF     		it	ne
 4371 0012 0123     		movne	r3, #1
 4372              	.L563:
 4373 0014 002B     		cmp	r3, #0
 4374 0016 40F09180 		bne	.L581
 4375 001a 38BB     		cbnz	r0, .L567
 4376 001c 0223     		movs	r3, #2
 4377 001e 84F83E30 		strb	r3, [r4, #62]
 4378              	.L568:
 4379 0022 0C28     		cmp	r0, #12
 4380 0024 00F28C80 		bhi	.L582
 4381 0028 DFE800F0 		tbb	[pc, r0]
 4382              	.L572:
 4383 002c 30       		.byte	(.L575-.L572)/2
 4384 002d 8A       		.byte	(.L582-.L572)/2
 4385 002e 8A       		.byte	(.L582-.L572)/2
 4386 002f 8A       		.byte	(.L582-.L572)/2
 4387 0030 6B       		.byte	(.L574-.L572)/2
 4388 0031 8A       		.byte	(.L582-.L572)/2
 4389 0032 8A       		.byte	(.L582-.L572)/2
 4390 0033 8A       		.byte	(.L582-.L572)/2
 4391 0034 71       		.byte	(.L573-.L572)/2
 4392 0035 8A       		.byte	(.L582-.L572)/2
 4393 0036 8A       		.byte	(.L582-.L572)/2
 4394 0037 8A       		.byte	(.L582-.L572)/2
 4395 0038 77       		.byte	(.L571-.L572)/2
 4396 0039 00       		.p2align 1
 4397              	.L562:
 4398 003a 0429     		cmp	r1, #4
 4399 003c 08D0     		beq	.L585
 4400 003e 0829     		cmp	r1, #8
 4401 0040 0DD0     		beq	.L586
 4402 0042 94F84130 		ldrb	r3, [r4, #65]	@ zero_extendqisi2
 4403 0046 DBB2     		uxtb	r3, r3
 4404 0048 013B     		subs	r3, r3, #1
 4405 004a 18BF     		it	ne
ARM GAS  /tmp/cc01cbqV.s 			page 75


 4406 004c 0123     		movne	r3, #1
 4407 004e E1E7     		b	.L563
 4408              	.L585:
 4409 0050 94F83F30 		ldrb	r3, [r4, #63]	@ zero_extendqisi2
 4410 0054 DBB2     		uxtb	r3, r3
 4411 0056 013B     		subs	r3, r3, #1
 4412 0058 18BF     		it	ne
 4413 005a 0123     		movne	r3, #1
 4414 005c DAE7     		b	.L563
 4415              	.L586:
 4416 005e 94F84030 		ldrb	r3, [r4, #64]	@ zero_extendqisi2
 4417 0062 DBB2     		uxtb	r3, r3
 4418 0064 013B     		subs	r3, r3, #1
 4419 0066 18BF     		it	ne
 4420 0068 0123     		movne	r3, #1
 4421 006a D3E7     		b	.L563
 4422              	.L567:
 4423 006c 0428     		cmp	r0, #4
 4424 006e 05D0     		beq	.L587
 4425 0070 0828     		cmp	r0, #8
 4426 0072 07D0     		beq	.L588
 4427 0074 0223     		movs	r3, #2
 4428 0076 84F84130 		strb	r3, [r4, #65]
 4429 007a D2E7     		b	.L568
 4430              	.L587:
 4431 007c 0223     		movs	r3, #2
 4432 007e 84F83F30 		strb	r3, [r4, #63]
 4433 0082 CEE7     		b	.L568
 4434              	.L588:
 4435 0084 0223     		movs	r3, #2
 4436 0086 84F84030 		strb	r3, [r4, #64]
 4437 008a CAE7     		b	.L568
 4438              	.L575:
 4439 008c 2268     		ldr	r2, [r4]
 4440 008e D368     		ldr	r3, [r2, #12]
 4441 0090 43F00203 		orr	r3, r3, #2
 4442 0094 D360     		str	r3, [r2, #12]
 4443              	.L576:
 4444 0096 0122     		movs	r2, #1
 4445 0098 0146     		mov	r1, r0
 4446 009a 2068     		ldr	r0, [r4]
 4447 009c FFF7FEFF 		bl	TIM_CCxChannelCmd
 4448 00a0 2368     		ldr	r3, [r4]
 4449 00a2 294A     		ldr	r2, .L589
 4450 00a4 9342     		cmp	r3, r2
 4451 00a6 03D0     		beq	.L577
 4452 00a8 02F58062 		add	r2, r2, #1024
 4453 00ac 9342     		cmp	r3, r2
 4454 00ae 03D1     		bne	.L578
 4455              	.L577:
 4456 00b0 5A6C     		ldr	r2, [r3, #68]
 4457 00b2 42F40042 		orr	r2, r2, #32768
 4458 00b6 5A64     		str	r2, [r3, #68]
 4459              	.L578:
 4460 00b8 2368     		ldr	r3, [r4]
 4461 00ba 234A     		ldr	r2, .L589
 4462 00bc 9342     		cmp	r3, r2
ARM GAS  /tmp/cc01cbqV.s 			page 76


 4463 00be 32D0     		beq	.L579
 4464 00c0 B3F1804F 		cmp	r3, #1073741824
 4465 00c4 2FD0     		beq	.L579
 4466 00c6 A2F57C42 		sub	r2, r2, #64512
 4467 00ca 9342     		cmp	r3, r2
 4468 00cc 2BD0     		beq	.L579
 4469 00ce 02F58062 		add	r2, r2, #1024
 4470 00d2 9342     		cmp	r3, r2
 4471 00d4 27D0     		beq	.L579
 4472 00d6 02F58062 		add	r2, r2, #1024
 4473 00da 9342     		cmp	r3, r2
 4474 00dc 23D0     		beq	.L579
 4475 00de 02F57842 		add	r2, r2, #63488
 4476 00e2 9342     		cmp	r3, r2
 4477 00e4 1FD0     		beq	.L579
 4478 00e6 02F57052 		add	r2, r2, #15360
 4479 00ea 9342     		cmp	r3, r2
 4480 00ec 1BD0     		beq	.L579
 4481 00ee A2F59432 		sub	r2, r2, #75776
 4482 00f2 9342     		cmp	r3, r2
 4483 00f4 17D0     		beq	.L579
 4484 00f6 1A68     		ldr	r2, [r3]
 4485 00f8 42F00102 		orr	r2, r2, #1
 4486 00fc 1A60     		str	r2, [r3]
 4487 00fe 0020     		movs	r0, #0
 4488 0100 1FE0     		b	.L566
 4489              	.L574:
 4490 0102 2268     		ldr	r2, [r4]
 4491 0104 D368     		ldr	r3, [r2, #12]
 4492 0106 43F00403 		orr	r3, r3, #4
 4493 010a D360     		str	r3, [r2, #12]
 4494 010c C3E7     		b	.L576
 4495              	.L573:
 4496 010e 2268     		ldr	r2, [r4]
 4497 0110 D368     		ldr	r3, [r2, #12]
 4498 0112 43F00803 		orr	r3, r3, #8
 4499 0116 D360     		str	r3, [r2, #12]
 4500 0118 BDE7     		b	.L576
 4501              	.L571:
 4502 011a 2268     		ldr	r2, [r4]
 4503 011c D368     		ldr	r3, [r2, #12]
 4504 011e 43F01003 		orr	r3, r3, #16
 4505 0122 D360     		str	r3, [r2, #12]
 4506 0124 B7E7     		b	.L576
 4507              	.L579:
 4508 0126 9A68     		ldr	r2, [r3, #8]
 4509 0128 02F00702 		and	r2, r2, #7
 4510 012c 062A     		cmp	r2, #6
 4511 012e 09D0     		beq	.L583
 4512 0130 1A68     		ldr	r2, [r3]
 4513 0132 42F00102 		orr	r2, r2, #1
 4514 0136 1A60     		str	r2, [r3]
 4515 0138 0020     		movs	r0, #0
 4516 013a 02E0     		b	.L566
 4517              	.L581:
 4518 013c 0120     		movs	r0, #1
 4519 013e 00E0     		b	.L566
ARM GAS  /tmp/cc01cbqV.s 			page 77


 4520              	.L582:
 4521 0140 0120     		movs	r0, #1
 4522              	.L566:
 4523 0142 10BD     		pop	{r4, pc}
 4524              	.L583:
 4525 0144 0020     		movs	r0, #0
 4526 0146 FCE7     		b	.L566
 4527              	.L590:
 4528              		.align	2
 4529              	.L589:
 4530 0148 00000140 		.word	1073807360
 4532              		.section	.text.HAL_TIM_OC_Stop_IT,"ax",%progbits
 4533              		.align	1
 4534              		.global	HAL_TIM_OC_Stop_IT
 4535              		.syntax unified
 4536              		.thumb
 4537              		.thumb_func
 4538              		.fpu fpv4-sp-d16
 4540              	HAL_TIM_OC_Stop_IT:
 4541              		@ args = 0, pretend = 0, frame = 0
 4542              		@ frame_needed = 0, uses_anonymous_args = 0
 4543 0000 38B5     		push	{r3, r4, r5, lr}
 4544 0002 0546     		mov	r5, r0
 4545 0004 0C46     		mov	r4, r1
 4546 0006 0C29     		cmp	r1, #12
 4547 0008 63D8     		bhi	.L605
 4548 000a DFE801F0 		tbb	[pc, r1]
 4549              	.L594:
 4550 000e 07       		.byte	(.L597-.L594)/2
 4551 000f 62       		.byte	(.L605-.L594)/2
 4552 0010 62       		.byte	(.L605-.L594)/2
 4553 0011 62       		.byte	(.L605-.L594)/2
 4554 0012 2E       		.byte	(.L596-.L594)/2
 4555 0013 62       		.byte	(.L605-.L594)/2
 4556 0014 62       		.byte	(.L605-.L594)/2
 4557 0015 62       		.byte	(.L605-.L594)/2
 4558 0016 34       		.byte	(.L595-.L594)/2
 4559 0017 62       		.byte	(.L605-.L594)/2
 4560 0018 62       		.byte	(.L605-.L594)/2
 4561 0019 62       		.byte	(.L605-.L594)/2
 4562 001a 3A       		.byte	(.L593-.L594)/2
 4563 001b 00       		.p2align 1
 4564              	.L597:
 4565 001c 0268     		ldr	r2, [r0]
 4566 001e D368     		ldr	r3, [r2, #12]
 4567 0020 23F00203 		bic	r3, r3, #2
 4568 0024 D360     		str	r3, [r2, #12]
 4569              	.L598:
 4570 0026 0022     		movs	r2, #0
 4571 0028 2146     		mov	r1, r4
 4572 002a 2868     		ldr	r0, [r5]
 4573 002c FFF7FEFF 		bl	TIM_CCxChannelCmd
 4574 0030 2B68     		ldr	r3, [r5]
 4575 0032 294A     		ldr	r2, .L609
 4576 0034 9342     		cmp	r3, r2
 4577 0036 2AD0     		beq	.L599
 4578 0038 02F58062 		add	r2, r2, #1024
ARM GAS  /tmp/cc01cbqV.s 			page 78


 4579 003c 9342     		cmp	r3, r2
 4580 003e 26D0     		beq	.L599
 4581              	.L600:
 4582 0040 2B68     		ldr	r3, [r5]
 4583 0042 196A     		ldr	r1, [r3, #32]
 4584 0044 41F21112 		movw	r2, #4369
 4585 0048 1142     		tst	r1, r2
 4586 004a 08D1     		bne	.L601
 4587 004c 196A     		ldr	r1, [r3, #32]
 4588 004e 40F24442 		movw	r2, #1092
 4589 0052 1142     		tst	r1, r2
 4590 0054 03D1     		bne	.L601
 4591 0056 1A68     		ldr	r2, [r3]
 4592 0058 22F00102 		bic	r2, r2, #1
 4593 005c 1A60     		str	r2, [r3]
 4594              	.L601:
 4595 005e 2CBB     		cbnz	r4, .L602
 4596 0060 0123     		movs	r3, #1
 4597 0062 85F83E30 		strb	r3, [r5, #62]
 4598 0066 0020     		movs	r0, #0
 4599 0068 34E0     		b	.L592
 4600              	.L596:
 4601 006a 0268     		ldr	r2, [r0]
 4602 006c D368     		ldr	r3, [r2, #12]
 4603 006e 23F00403 		bic	r3, r3, #4
 4604 0072 D360     		str	r3, [r2, #12]
 4605 0074 D7E7     		b	.L598
 4606              	.L595:
 4607 0076 0268     		ldr	r2, [r0]
 4608 0078 D368     		ldr	r3, [r2, #12]
 4609 007a 23F00803 		bic	r3, r3, #8
 4610 007e D360     		str	r3, [r2, #12]
 4611 0080 D1E7     		b	.L598
 4612              	.L593:
 4613 0082 0268     		ldr	r2, [r0]
 4614 0084 D368     		ldr	r3, [r2, #12]
 4615 0086 23F01003 		bic	r3, r3, #16
 4616 008a D360     		str	r3, [r2, #12]
 4617 008c CBE7     		b	.L598
 4618              	.L599:
 4619 008e 196A     		ldr	r1, [r3, #32]
 4620 0090 41F21112 		movw	r2, #4369
 4621 0094 1142     		tst	r1, r2
 4622 0096 D3D1     		bne	.L600
 4623 0098 196A     		ldr	r1, [r3, #32]
 4624 009a 40F24442 		movw	r2, #1092
 4625 009e 1142     		tst	r1, r2
 4626 00a0 CED1     		bne	.L600
 4627 00a2 5A6C     		ldr	r2, [r3, #68]
 4628 00a4 22F40042 		bic	r2, r2, #32768
 4629 00a8 5A64     		str	r2, [r3, #68]
 4630 00aa C9E7     		b	.L600
 4631              	.L602:
 4632 00ac 042C     		cmp	r4, #4
 4633 00ae 06D0     		beq	.L607
 4634 00b0 082C     		cmp	r4, #8
 4635 00b2 09D0     		beq	.L608
ARM GAS  /tmp/cc01cbqV.s 			page 79


 4636 00b4 0123     		movs	r3, #1
 4637 00b6 85F84130 		strb	r3, [r5, #65]
 4638 00ba 0020     		movs	r0, #0
 4639 00bc 0AE0     		b	.L592
 4640              	.L607:
 4641 00be 0123     		movs	r3, #1
 4642 00c0 85F83F30 		strb	r3, [r5, #63]
 4643 00c4 0020     		movs	r0, #0
 4644 00c6 05E0     		b	.L592
 4645              	.L608:
 4646 00c8 0123     		movs	r3, #1
 4647 00ca 85F84030 		strb	r3, [r5, #64]
 4648 00ce 0020     		movs	r0, #0
 4649 00d0 00E0     		b	.L592
 4650              	.L605:
 4651 00d2 0120     		movs	r0, #1
 4652              	.L592:
 4653 00d4 38BD     		pop	{r3, r4, r5, pc}
 4654              	.L610:
 4655 00d6 00BF     		.align	2
 4656              	.L609:
 4657 00d8 00000140 		.word	1073807360
 4659              		.section	.text.HAL_TIM_OC_Start_DMA,"ax",%progbits
 4660              		.align	1
 4661              		.global	HAL_TIM_OC_Start_DMA
 4662              		.syntax unified
 4663              		.thumb
 4664              		.thumb_func
 4665              		.fpu fpv4-sp-d16
 4667              	HAL_TIM_OC_Start_DMA:
 4668              		@ args = 0, pretend = 0, frame = 0
 4669              		@ frame_needed = 0, uses_anonymous_args = 0
 4670 0000 70B5     		push	{r4, r5, r6, lr}
 4671 0002 0446     		mov	r4, r0
 4672 0004 1646     		mov	r6, r2
 4673 0006 0D46     		mov	r5, r1
 4674 0008 0029     		cmp	r1, #0
 4675 000a 2ED1     		bne	.L612
 4676 000c 90F83E00 		ldrb	r0, [r0, #62]	@ zero_extendqisi2
 4677 0010 C0B2     		uxtb	r0, r0
 4678 0012 0228     		cmp	r0, #2
 4679 0014 14BF     		ite	ne
 4680 0016 0020     		movne	r0, #0
 4681 0018 0120     		moveq	r0, #1
 4682              	.L613:
 4683 001a 0028     		cmp	r0, #0
 4684 001c 40F00D81 		bne	.L636
 4685 0020 002D     		cmp	r5, #0
 4686 0022 3ED1     		bne	.L617
 4687 0024 94F83E20 		ldrb	r2, [r4, #62]	@ zero_extendqisi2
 4688 0028 D2B2     		uxtb	r2, r2
 4689 002a 012A     		cmp	r2, #1
 4690 002c 14BF     		ite	ne
 4691 002e 0022     		movne	r2, #0
 4692 0030 0122     		moveq	r2, #1
 4693              	.L618:
 4694 0032 002A     		cmp	r2, #0
ARM GAS  /tmp/cc01cbqV.s 			page 80


 4695 0034 00F00381 		beq	.L637
 4696 0038 002E     		cmp	r6, #0
 4697 003a 4ED0     		beq	.L646
 4698              	.L621:
 4699 003c 002D     		cmp	r5, #0
 4700 003e 50D1     		bne	.L622
 4701 0040 0222     		movs	r2, #2
 4702 0042 84F83E20 		strb	r2, [r4, #62]
 4703              	.L623:
 4704 0046 0C2D     		cmp	r5, #12
 4705 0048 00F2FB80 		bhi	.L639
 4706 004c DFE815F0 		tbh	[pc, r5, lsl #1]
 4707              	.L627:
 4708 0050 5900     		.2byte	(.L630-.L627)/2
 4709 0052 F900     		.2byte	(.L639-.L627)/2
 4710 0054 F900     		.2byte	(.L639-.L627)/2
 4711 0056 F900     		.2byte	(.L639-.L627)/2
 4712 0058 A600     		.2byte	(.L629-.L627)/2
 4713 005a F900     		.2byte	(.L639-.L627)/2
 4714 005c F900     		.2byte	(.L639-.L627)/2
 4715 005e F900     		.2byte	(.L639-.L627)/2
 4716 0060 BD00     		.2byte	(.L628-.L627)/2
 4717 0062 F900     		.2byte	(.L639-.L627)/2
 4718 0064 F900     		.2byte	(.L639-.L627)/2
 4719 0066 F900     		.2byte	(.L639-.L627)/2
 4720 0068 D400     		.2byte	(.L626-.L627)/2
 4721              		.p2align 1
 4722              	.L612:
 4723 006a 0429     		cmp	r1, #4
 4724 006c 09D0     		beq	.L647
 4725 006e 0829     		cmp	r1, #8
 4726 0070 0FD0     		beq	.L648
 4727 0072 90F84100 		ldrb	r0, [r0, #65]	@ zero_extendqisi2
 4728 0076 C0B2     		uxtb	r0, r0
 4729 0078 0228     		cmp	r0, #2
 4730 007a 14BF     		ite	ne
 4731 007c 0020     		movne	r0, #0
 4732 007e 0120     		moveq	r0, #1
 4733 0080 CBE7     		b	.L613
 4734              	.L647:
 4735 0082 90F83F00 		ldrb	r0, [r0, #63]	@ zero_extendqisi2
 4736 0086 C0B2     		uxtb	r0, r0
 4737 0088 0228     		cmp	r0, #2
 4738 008a 14BF     		ite	ne
 4739 008c 0020     		movne	r0, #0
 4740 008e 0120     		moveq	r0, #1
 4741 0090 C3E7     		b	.L613
 4742              	.L648:
 4743 0092 90F84000 		ldrb	r0, [r0, #64]	@ zero_extendqisi2
 4744 0096 C0B2     		uxtb	r0, r0
 4745 0098 0228     		cmp	r0, #2
 4746 009a 14BF     		ite	ne
 4747 009c 0020     		movne	r0, #0
 4748 009e 0120     		moveq	r0, #1
 4749 00a0 BBE7     		b	.L613
 4750              	.L617:
 4751 00a2 042D     		cmp	r5, #4
ARM GAS  /tmp/cc01cbqV.s 			page 81


 4752 00a4 09D0     		beq	.L649
 4753 00a6 082D     		cmp	r5, #8
 4754 00a8 0FD0     		beq	.L650
 4755 00aa 94F84120 		ldrb	r2, [r4, #65]	@ zero_extendqisi2
 4756 00ae D2B2     		uxtb	r2, r2
 4757 00b0 012A     		cmp	r2, #1
 4758 00b2 14BF     		ite	ne
 4759 00b4 0022     		movne	r2, #0
 4760 00b6 0122     		moveq	r2, #1
 4761 00b8 BBE7     		b	.L618
 4762              	.L649:
 4763 00ba 94F83F20 		ldrb	r2, [r4, #63]	@ zero_extendqisi2
 4764 00be D2B2     		uxtb	r2, r2
 4765 00c0 012A     		cmp	r2, #1
 4766 00c2 14BF     		ite	ne
 4767 00c4 0022     		movne	r2, #0
 4768 00c6 0122     		moveq	r2, #1
 4769 00c8 B3E7     		b	.L618
 4770              	.L650:
 4771 00ca 94F84020 		ldrb	r2, [r4, #64]	@ zero_extendqisi2
 4772 00ce D2B2     		uxtb	r2, r2
 4773 00d0 012A     		cmp	r2, #1
 4774 00d2 14BF     		ite	ne
 4775 00d4 0022     		movne	r2, #0
 4776 00d6 0122     		moveq	r2, #1
 4777 00d8 ABE7     		b	.L618
 4778              	.L646:
 4779 00da 002B     		cmp	r3, #0
 4780 00dc AED0     		beq	.L621
 4781 00de 0120     		movs	r0, #1
 4782 00e0 AEE0     		b	.L616
 4783              	.L622:
 4784 00e2 042D     		cmp	r5, #4
 4785 00e4 05D0     		beq	.L651
 4786 00e6 082D     		cmp	r5, #8
 4787 00e8 07D0     		beq	.L652
 4788 00ea 0222     		movs	r2, #2
 4789 00ec 84F84120 		strb	r2, [r4, #65]
 4790 00f0 A9E7     		b	.L623
 4791              	.L651:
 4792 00f2 0222     		movs	r2, #2
 4793 00f4 84F83F20 		strb	r2, [r4, #63]
 4794 00f8 A5E7     		b	.L623
 4795              	.L652:
 4796 00fa 0222     		movs	r2, #2
 4797 00fc 84F84020 		strb	r2, [r4, #64]
 4798 0100 A1E7     		b	.L623
 4799              	.L630:
 4800 0102 626A     		ldr	r2, [r4, #36]
 4801 0104 5549     		ldr	r1, .L653
 4802 0106 D163     		str	r1, [r2, #60]
 4803 0108 626A     		ldr	r2, [r4, #36]
 4804 010a 5549     		ldr	r1, .L653+4
 4805 010c 1164     		str	r1, [r2, #64]
 4806 010e 626A     		ldr	r2, [r4, #36]
 4807 0110 5449     		ldr	r1, .L653+8
 4808 0112 D164     		str	r1, [r2, #76]
ARM GAS  /tmp/cc01cbqV.s 			page 82


 4809 0114 2268     		ldr	r2, [r4]
 4810 0116 3432     		adds	r2, r2, #52
 4811 0118 3146     		mov	r1, r6
 4812 011a 606A     		ldr	r0, [r4, #36]
 4813 011c FFF7FEFF 		bl	HAL_DMA_Start_IT
 4814 0120 0028     		cmp	r0, #0
 4815 0122 40F09080 		bne	.L640
 4816 0126 2268     		ldr	r2, [r4]
 4817 0128 D368     		ldr	r3, [r2, #12]
 4818 012a 43F40073 		orr	r3, r3, #512
 4819 012e D360     		str	r3, [r2, #12]
 4820              	.L631:
 4821 0130 0122     		movs	r2, #1
 4822 0132 2946     		mov	r1, r5
 4823 0134 2068     		ldr	r0, [r4]
 4824 0136 FFF7FEFF 		bl	TIM_CCxChannelCmd
 4825 013a 2368     		ldr	r3, [r4]
 4826 013c 4A4A     		ldr	r2, .L653+12
 4827 013e 9342     		cmp	r3, r2
 4828 0140 03D0     		beq	.L632
 4829 0142 02F58062 		add	r2, r2, #1024
 4830 0146 9342     		cmp	r3, r2
 4831 0148 03D1     		bne	.L633
 4832              	.L632:
 4833 014a 5A6C     		ldr	r2, [r3, #68]
 4834 014c 42F40042 		orr	r2, r2, #32768
 4835 0150 5A64     		str	r2, [r3, #68]
 4836              	.L633:
 4837 0152 2368     		ldr	r3, [r4]
 4838 0154 444A     		ldr	r2, .L653+12
 4839 0156 9342     		cmp	r3, r2
 4840 0158 64D0     		beq	.L634
 4841 015a B3F1804F 		cmp	r3, #1073741824
 4842 015e 61D0     		beq	.L634
 4843 0160 A2F57C42 		sub	r2, r2, #64512
 4844 0164 9342     		cmp	r3, r2
 4845 0166 5DD0     		beq	.L634
 4846 0168 02F58062 		add	r2, r2, #1024
 4847 016c 9342     		cmp	r3, r2
 4848 016e 59D0     		beq	.L634
 4849 0170 02F58062 		add	r2, r2, #1024
 4850 0174 9342     		cmp	r3, r2
 4851 0176 55D0     		beq	.L634
 4852 0178 02F57842 		add	r2, r2, #63488
 4853 017c 9342     		cmp	r3, r2
 4854 017e 51D0     		beq	.L634
 4855 0180 02F57052 		add	r2, r2, #15360
 4856 0184 9342     		cmp	r3, r2
 4857 0186 4DD0     		beq	.L634
 4858 0188 A2F59432 		sub	r2, r2, #75776
 4859 018c 9342     		cmp	r3, r2
 4860 018e 49D0     		beq	.L634
 4861 0190 1A68     		ldr	r2, [r3]
 4862 0192 42F00102 		orr	r2, r2, #1
 4863 0196 1A60     		str	r2, [r3]
 4864 0198 0020     		movs	r0, #0
 4865 019a 51E0     		b	.L616
ARM GAS  /tmp/cc01cbqV.s 			page 83


 4866              	.L629:
 4867 019c A26A     		ldr	r2, [r4, #40]
 4868 019e 2F49     		ldr	r1, .L653
 4869 01a0 D163     		str	r1, [r2, #60]
 4870 01a2 A26A     		ldr	r2, [r4, #40]
 4871 01a4 2E49     		ldr	r1, .L653+4
 4872 01a6 1164     		str	r1, [r2, #64]
 4873 01a8 A26A     		ldr	r2, [r4, #40]
 4874 01aa 2E49     		ldr	r1, .L653+8
 4875 01ac D164     		str	r1, [r2, #76]
 4876 01ae 2268     		ldr	r2, [r4]
 4877 01b0 3832     		adds	r2, r2, #56
 4878 01b2 3146     		mov	r1, r6
 4879 01b4 A06A     		ldr	r0, [r4, #40]
 4880 01b6 FFF7FEFF 		bl	HAL_DMA_Start_IT
 4881 01ba 0028     		cmp	r0, #0
 4882 01bc 45D1     		bne	.L641
 4883 01be 2268     		ldr	r2, [r4]
 4884 01c0 D368     		ldr	r3, [r2, #12]
 4885 01c2 43F48063 		orr	r3, r3, #1024
 4886 01c6 D360     		str	r3, [r2, #12]
 4887 01c8 B2E7     		b	.L631
 4888              	.L628:
 4889 01ca E26A     		ldr	r2, [r4, #44]
 4890 01cc 2349     		ldr	r1, .L653
 4891 01ce D163     		str	r1, [r2, #60]
 4892 01d0 E26A     		ldr	r2, [r4, #44]
 4893 01d2 2349     		ldr	r1, .L653+4
 4894 01d4 1164     		str	r1, [r2, #64]
 4895 01d6 E26A     		ldr	r2, [r4, #44]
 4896 01d8 2249     		ldr	r1, .L653+8
 4897 01da D164     		str	r1, [r2, #76]
 4898 01dc 2268     		ldr	r2, [r4]
 4899 01de 3C32     		adds	r2, r2, #60
 4900 01e0 3146     		mov	r1, r6
 4901 01e2 E06A     		ldr	r0, [r4, #44]
 4902 01e4 FFF7FEFF 		bl	HAL_DMA_Start_IT
 4903 01e8 0028     		cmp	r0, #0
 4904 01ea 30D1     		bne	.L642
 4905 01ec 2268     		ldr	r2, [r4]
 4906 01ee D368     		ldr	r3, [r2, #12]
 4907 01f0 43F40063 		orr	r3, r3, #2048
 4908 01f4 D360     		str	r3, [r2, #12]
 4909 01f6 9BE7     		b	.L631
 4910              	.L626:
 4911 01f8 226B     		ldr	r2, [r4, #48]
 4912 01fa 1849     		ldr	r1, .L653
 4913 01fc D163     		str	r1, [r2, #60]
 4914 01fe 226B     		ldr	r2, [r4, #48]
 4915 0200 1749     		ldr	r1, .L653+4
 4916 0202 1164     		str	r1, [r2, #64]
 4917 0204 226B     		ldr	r2, [r4, #48]
 4918 0206 1749     		ldr	r1, .L653+8
 4919 0208 D164     		str	r1, [r2, #76]
 4920 020a 2268     		ldr	r2, [r4]
 4921 020c 4032     		adds	r2, r2, #64
 4922 020e 3146     		mov	r1, r6
ARM GAS  /tmp/cc01cbqV.s 			page 84


 4923 0210 206B     		ldr	r0, [r4, #48]
 4924 0212 FFF7FEFF 		bl	HAL_DMA_Start_IT
 4925 0216 E0B9     		cbnz	r0, .L643
 4926 0218 2268     		ldr	r2, [r4]
 4927 021a D368     		ldr	r3, [r2, #12]
 4928 021c 43F48053 		orr	r3, r3, #4096
 4929 0220 D360     		str	r3, [r2, #12]
 4930 0222 85E7     		b	.L631
 4931              	.L634:
 4932 0224 9A68     		ldr	r2, [r3, #8]
 4933 0226 02F00702 		and	r2, r2, #7
 4934 022a 062A     		cmp	r2, #6
 4935 022c 13D0     		beq	.L644
 4936 022e 1A68     		ldr	r2, [r3]
 4937 0230 42F00102 		orr	r2, r2, #1
 4938 0234 1A60     		str	r2, [r3]
 4939 0236 0020     		movs	r0, #0
 4940 0238 02E0     		b	.L616
 4941              	.L636:
 4942 023a 0220     		movs	r0, #2
 4943 023c 00E0     		b	.L616
 4944              	.L637:
 4945 023e 0120     		movs	r0, #1
 4946              	.L616:
 4947 0240 70BD     		pop	{r4, r5, r6, pc}
 4948              	.L639:
 4949 0242 0120     		movs	r0, #1
 4950 0244 FCE7     		b	.L616
 4951              	.L640:
 4952 0246 0120     		movs	r0, #1
 4953 0248 FAE7     		b	.L616
 4954              	.L641:
 4955 024a 0120     		movs	r0, #1
 4956 024c F8E7     		b	.L616
 4957              	.L642:
 4958 024e 0120     		movs	r0, #1
 4959 0250 F6E7     		b	.L616
 4960              	.L643:
 4961 0252 0120     		movs	r0, #1
 4962 0254 F4E7     		b	.L616
 4963              	.L644:
 4964 0256 0020     		movs	r0, #0
 4965 0258 F2E7     		b	.L616
 4966              	.L654:
 4967 025a 00BF     		.align	2
 4968              	.L653:
 4969 025c 00000000 		.word	TIM_DMADelayPulseCplt
 4970 0260 00000000 		.word	TIM_DMADelayPulseHalfCplt
 4971 0264 00000000 		.word	TIM_DMAError
 4972 0268 00000140 		.word	1073807360
 4974              		.section	.text.HAL_TIM_OC_Stop_DMA,"ax",%progbits
 4975              		.align	1
 4976              		.global	HAL_TIM_OC_Stop_DMA
 4977              		.syntax unified
 4978              		.thumb
 4979              		.thumb_func
 4980              		.fpu fpv4-sp-d16
ARM GAS  /tmp/cc01cbqV.s 			page 85


 4982              	HAL_TIM_OC_Stop_DMA:
 4983              		@ args = 0, pretend = 0, frame = 0
 4984              		@ frame_needed = 0, uses_anonymous_args = 0
 4985 0000 38B5     		push	{r3, r4, r5, lr}
 4986 0002 0446     		mov	r4, r0
 4987 0004 0D46     		mov	r5, r1
 4988 0006 0C29     		cmp	r1, #12
 4989 0008 70D8     		bhi	.L669
 4990 000a DFE801F0 		tbb	[pc, r1]
 4991              	.L658:
 4992 000e 07       		.byte	(.L661-.L658)/2
 4993 000f 6F       		.byte	(.L669-.L658)/2
 4994 0010 6F       		.byte	(.L669-.L658)/2
 4995 0011 6F       		.byte	(.L669-.L658)/2
 4996 0012 32       		.byte	(.L660-.L658)/2
 4997 0013 6F       		.byte	(.L669-.L658)/2
 4998 0014 6F       		.byte	(.L669-.L658)/2
 4999 0015 6F       		.byte	(.L669-.L658)/2
 5000 0016 3B       		.byte	(.L659-.L658)/2
 5001 0017 6F       		.byte	(.L669-.L658)/2
 5002 0018 6F       		.byte	(.L669-.L658)/2
 5003 0019 6F       		.byte	(.L669-.L658)/2
 5004 001a 44       		.byte	(.L657-.L658)/2
 5005 001b 00       		.p2align 1
 5006              	.L661:
 5007 001c 0268     		ldr	r2, [r0]
 5008 001e D368     		ldr	r3, [r2, #12]
 5009 0020 23F40073 		bic	r3, r3, #512
 5010 0024 D360     		str	r3, [r2, #12]
 5011 0026 406A     		ldr	r0, [r0, #36]
 5012 0028 FFF7FEFF 		bl	HAL_DMA_Abort_IT
 5013              	.L662:
 5014 002c 0022     		movs	r2, #0
 5015 002e 2946     		mov	r1, r5
 5016 0030 2068     		ldr	r0, [r4]
 5017 0032 FFF7FEFF 		bl	TIM_CCxChannelCmd
 5018 0036 2368     		ldr	r3, [r4]
 5019 0038 2D4A     		ldr	r2, .L673
 5020 003a 9342     		cmp	r3, r2
 5021 003c 34D0     		beq	.L663
 5022 003e 02F58062 		add	r2, r2, #1024
 5023 0042 9342     		cmp	r3, r2
 5024 0044 30D0     		beq	.L663
 5025              	.L664:
 5026 0046 2368     		ldr	r3, [r4]
 5027 0048 196A     		ldr	r1, [r3, #32]
 5028 004a 41F21112 		movw	r2, #4369
 5029 004e 1142     		tst	r1, r2
 5030 0050 08D1     		bne	.L665
 5031 0052 196A     		ldr	r1, [r3, #32]
 5032 0054 40F24442 		movw	r2, #1092
 5033 0058 1142     		tst	r1, r2
 5034 005a 03D1     		bne	.L665
 5035 005c 1A68     		ldr	r2, [r3]
 5036 005e 22F00102 		bic	r2, r2, #1
 5037 0062 1A60     		str	r2, [r3]
 5038              	.L665:
ARM GAS  /tmp/cc01cbqV.s 			page 86


 5039 0064 002D     		cmp	r5, #0
 5040 0066 2ED1     		bne	.L666
 5041 0068 0123     		movs	r3, #1
 5042 006a 84F83E30 		strb	r3, [r4, #62]
 5043 006e 0020     		movs	r0, #0
 5044 0070 3DE0     		b	.L656
 5045              	.L660:
 5046 0072 0268     		ldr	r2, [r0]
 5047 0074 D368     		ldr	r3, [r2, #12]
 5048 0076 23F48063 		bic	r3, r3, #1024
 5049 007a D360     		str	r3, [r2, #12]
 5050 007c 806A     		ldr	r0, [r0, #40]
 5051 007e FFF7FEFF 		bl	HAL_DMA_Abort_IT
 5052 0082 D3E7     		b	.L662
 5053              	.L659:
 5054 0084 0268     		ldr	r2, [r0]
 5055 0086 D368     		ldr	r3, [r2, #12]
 5056 0088 23F40063 		bic	r3, r3, #2048
 5057 008c D360     		str	r3, [r2, #12]
 5058 008e C06A     		ldr	r0, [r0, #44]
 5059 0090 FFF7FEFF 		bl	HAL_DMA_Abort_IT
 5060 0094 CAE7     		b	.L662
 5061              	.L657:
 5062 0096 0268     		ldr	r2, [r0]
 5063 0098 D368     		ldr	r3, [r2, #12]
 5064 009a 23F48053 		bic	r3, r3, #4096
 5065 009e D360     		str	r3, [r2, #12]
 5066 00a0 006B     		ldr	r0, [r0, #48]
 5067 00a2 FFF7FEFF 		bl	HAL_DMA_Abort_IT
 5068 00a6 C1E7     		b	.L662
 5069              	.L663:
 5070 00a8 196A     		ldr	r1, [r3, #32]
 5071 00aa 41F21112 		movw	r2, #4369
 5072 00ae 1142     		tst	r1, r2
 5073 00b0 C9D1     		bne	.L664
 5074 00b2 196A     		ldr	r1, [r3, #32]
 5075 00b4 40F24442 		movw	r2, #1092
 5076 00b8 1142     		tst	r1, r2
 5077 00ba C4D1     		bne	.L664
 5078 00bc 5A6C     		ldr	r2, [r3, #68]
 5079 00be 22F40042 		bic	r2, r2, #32768
 5080 00c2 5A64     		str	r2, [r3, #68]
 5081 00c4 BFE7     		b	.L664
 5082              	.L666:
 5083 00c6 042D     		cmp	r5, #4
 5084 00c8 06D0     		beq	.L671
 5085 00ca 082D     		cmp	r5, #8
 5086 00cc 09D0     		beq	.L672
 5087 00ce 0123     		movs	r3, #1
 5088 00d0 84F84130 		strb	r3, [r4, #65]
 5089 00d4 0020     		movs	r0, #0
 5090 00d6 0AE0     		b	.L656
 5091              	.L671:
 5092 00d8 0123     		movs	r3, #1
 5093 00da 84F83F30 		strb	r3, [r4, #63]
 5094 00de 0020     		movs	r0, #0
 5095 00e0 05E0     		b	.L656
ARM GAS  /tmp/cc01cbqV.s 			page 87


 5096              	.L672:
 5097 00e2 0123     		movs	r3, #1
 5098 00e4 84F84030 		strb	r3, [r4, #64]
 5099 00e8 0020     		movs	r0, #0
 5100 00ea 00E0     		b	.L656
 5101              	.L669:
 5102 00ec 0120     		movs	r0, #1
 5103              	.L656:
 5104 00ee 38BD     		pop	{r3, r4, r5, pc}
 5105              	.L674:
 5106              		.align	2
 5107              	.L673:
 5108 00f0 00000140 		.word	1073807360
 5110              		.section	.text.HAL_TIM_PWM_Start,"ax",%progbits
 5111              		.align	1
 5112              		.global	HAL_TIM_PWM_Start
 5113              		.syntax unified
 5114              		.thumb
 5115              		.thumb_func
 5116              		.fpu fpv4-sp-d16
 5118              	HAL_TIM_PWM_Start:
 5119              		@ args = 0, pretend = 0, frame = 0
 5120              		@ frame_needed = 0, uses_anonymous_args = 0
 5121 0000 10B5     		push	{r4, lr}
 5122 0002 0446     		mov	r4, r0
 5123 0004 0846     		mov	r0, r1
 5124 0006 0029     		cmp	r1, #0
 5125 0008 42D1     		bne	.L676
 5126 000a 94F83E30 		ldrb	r3, [r4, #62]	@ zero_extendqisi2
 5127 000e DBB2     		uxtb	r3, r3
 5128 0010 013B     		subs	r3, r3, #1
 5129 0012 18BF     		it	ne
 5130 0014 0123     		movne	r3, #1
 5131              	.L677:
 5132 0016 002B     		cmp	r3, #0
 5133 0018 6ED1     		bne	.L689
 5134 001a 0028     		cmp	r0, #0
 5135 001c 51D1     		bne	.L681
 5136 001e 0223     		movs	r3, #2
 5137 0020 84F83E30 		strb	r3, [r4, #62]
 5138              	.L682:
 5139 0024 0122     		movs	r2, #1
 5140 0026 0146     		mov	r1, r0
 5141 0028 2068     		ldr	r0, [r4]
 5142 002a FFF7FEFF 		bl	TIM_CCxChannelCmd
 5143 002e 2368     		ldr	r3, [r4]
 5144 0030 334A     		ldr	r2, .L696
 5145 0032 9342     		cmp	r3, r2
 5146 0034 03D0     		beq	.L685
 5147 0036 02F58062 		add	r2, r2, #1024
 5148 003a 9342     		cmp	r3, r2
 5149 003c 03D1     		bne	.L686
 5150              	.L685:
 5151 003e 5A6C     		ldr	r2, [r3, #68]
 5152 0040 42F40042 		orr	r2, r2, #32768
 5153 0044 5A64     		str	r2, [r3, #68]
 5154              	.L686:
ARM GAS  /tmp/cc01cbqV.s 			page 88


 5155 0046 2368     		ldr	r3, [r4]
 5156 0048 2D4A     		ldr	r2, .L696
 5157 004a 9342     		cmp	r3, r2
 5158 004c 49D0     		beq	.L687
 5159 004e B3F1804F 		cmp	r3, #1073741824
 5160 0052 46D0     		beq	.L687
 5161 0054 A2F57C42 		sub	r2, r2, #64512
 5162 0058 9342     		cmp	r3, r2
 5163 005a 42D0     		beq	.L687
 5164 005c 02F58062 		add	r2, r2, #1024
 5165 0060 9342     		cmp	r3, r2
 5166 0062 3ED0     		beq	.L687
 5167 0064 02F58062 		add	r2, r2, #1024
 5168 0068 9342     		cmp	r3, r2
 5169 006a 3AD0     		beq	.L687
 5170 006c 02F57842 		add	r2, r2, #63488
 5171 0070 9342     		cmp	r3, r2
 5172 0072 36D0     		beq	.L687
 5173 0074 02F57052 		add	r2, r2, #15360
 5174 0078 9342     		cmp	r3, r2
 5175 007a 32D0     		beq	.L687
 5176 007c A2F59432 		sub	r2, r2, #75776
 5177 0080 9342     		cmp	r3, r2
 5178 0082 2ED0     		beq	.L687
 5179 0084 1A68     		ldr	r2, [r3]
 5180 0086 42F00102 		orr	r2, r2, #1
 5181 008a 1A60     		str	r2, [r3]
 5182 008c 0020     		movs	r0, #0
 5183 008e 32E0     		b	.L680
 5184              	.L676:
 5185 0090 0429     		cmp	r1, #4
 5186 0092 08D0     		beq	.L692
 5187 0094 0829     		cmp	r1, #8
 5188 0096 0DD0     		beq	.L693
 5189 0098 94F84130 		ldrb	r3, [r4, #65]	@ zero_extendqisi2
 5190 009c DBB2     		uxtb	r3, r3
 5191 009e 013B     		subs	r3, r3, #1
 5192 00a0 18BF     		it	ne
 5193 00a2 0123     		movne	r3, #1
 5194 00a4 B7E7     		b	.L677
 5195              	.L692:
 5196 00a6 94F83F30 		ldrb	r3, [r4, #63]	@ zero_extendqisi2
 5197 00aa DBB2     		uxtb	r3, r3
 5198 00ac 013B     		subs	r3, r3, #1
 5199 00ae 18BF     		it	ne
 5200 00b0 0123     		movne	r3, #1
 5201 00b2 B0E7     		b	.L677
 5202              	.L693:
 5203 00b4 94F84030 		ldrb	r3, [r4, #64]	@ zero_extendqisi2
 5204 00b8 DBB2     		uxtb	r3, r3
 5205 00ba 013B     		subs	r3, r3, #1
 5206 00bc 18BF     		it	ne
 5207 00be 0123     		movne	r3, #1
 5208 00c0 A9E7     		b	.L677
 5209              	.L681:
 5210 00c2 0428     		cmp	r0, #4
 5211 00c4 05D0     		beq	.L694
ARM GAS  /tmp/cc01cbqV.s 			page 89


 5212 00c6 0828     		cmp	r0, #8
 5213 00c8 07D0     		beq	.L695
 5214 00ca 0223     		movs	r3, #2
 5215 00cc 84F84130 		strb	r3, [r4, #65]
 5216 00d0 A8E7     		b	.L682
 5217              	.L694:
 5218 00d2 0223     		movs	r3, #2
 5219 00d4 84F83F30 		strb	r3, [r4, #63]
 5220 00d8 A4E7     		b	.L682
 5221              	.L695:
 5222 00da 0223     		movs	r3, #2
 5223 00dc 84F84030 		strb	r3, [r4, #64]
 5224 00e0 A0E7     		b	.L682
 5225              	.L687:
 5226 00e2 9A68     		ldr	r2, [r3, #8]
 5227 00e4 02F00702 		and	r2, r2, #7
 5228 00e8 062A     		cmp	r2, #6
 5229 00ea 07D0     		beq	.L690
 5230 00ec 1A68     		ldr	r2, [r3]
 5231 00ee 42F00102 		orr	r2, r2, #1
 5232 00f2 1A60     		str	r2, [r3]
 5233 00f4 0020     		movs	r0, #0
 5234              	.L680:
 5235 00f6 10BD     		pop	{r4, pc}
 5236              	.L689:
 5237 00f8 0120     		movs	r0, #1
 5238 00fa FCE7     		b	.L680
 5239              	.L690:
 5240 00fc 0020     		movs	r0, #0
 5241 00fe FAE7     		b	.L680
 5242              	.L697:
 5243              		.align	2
 5244              	.L696:
 5245 0100 00000140 		.word	1073807360
 5247              		.section	.text.HAL_TIM_PWM_Stop,"ax",%progbits
 5248              		.align	1
 5249              		.global	HAL_TIM_PWM_Stop
 5250              		.syntax unified
 5251              		.thumb
 5252              		.thumb_func
 5253              		.fpu fpv4-sp-d16
 5255              	HAL_TIM_PWM_Stop:
 5256              		@ args = 0, pretend = 0, frame = 0
 5257              		@ frame_needed = 0, uses_anonymous_args = 0
 5258 0000 38B5     		push	{r3, r4, r5, lr}
 5259 0002 0446     		mov	r4, r0
 5260 0004 0D46     		mov	r5, r1
 5261 0006 0022     		movs	r2, #0
 5262 0008 0068     		ldr	r0, [r0]
 5263 000a FFF7FEFF 		bl	TIM_CCxChannelCmd
 5264 000e 2368     		ldr	r3, [r4]
 5265 0010 1D4A     		ldr	r2, .L709
 5266 0012 9342     		cmp	r3, r2
 5267 0014 18D0     		beq	.L699
 5268 0016 02F58062 		add	r2, r2, #1024
 5269 001a 9342     		cmp	r3, r2
 5270 001c 14D0     		beq	.L699
ARM GAS  /tmp/cc01cbqV.s 			page 90


 5271              	.L700:
 5272 001e 2368     		ldr	r3, [r4]
 5273 0020 196A     		ldr	r1, [r3, #32]
 5274 0022 41F21112 		movw	r2, #4369
 5275 0026 1142     		tst	r1, r2
 5276 0028 08D1     		bne	.L701
 5277 002a 196A     		ldr	r1, [r3, #32]
 5278 002c 40F24442 		movw	r2, #1092
 5279 0030 1142     		tst	r1, r2
 5280 0032 03D1     		bne	.L701
 5281 0034 1A68     		ldr	r2, [r3]
 5282 0036 22F00102 		bic	r2, r2, #1
 5283 003a 1A60     		str	r2, [r3]
 5284              	.L701:
 5285 003c 9DB9     		cbnz	r5, .L702
 5286 003e 0123     		movs	r3, #1
 5287 0040 84F83E30 		strb	r3, [r4, #62]
 5288              	.L703:
 5289 0044 0020     		movs	r0, #0
 5290 0046 38BD     		pop	{r3, r4, r5, pc}
 5291              	.L699:
 5292 0048 196A     		ldr	r1, [r3, #32]
 5293 004a 41F21112 		movw	r2, #4369
 5294 004e 1142     		tst	r1, r2
 5295 0050 E5D1     		bne	.L700
 5296 0052 196A     		ldr	r1, [r3, #32]
 5297 0054 40F24442 		movw	r2, #1092
 5298 0058 1142     		tst	r1, r2
 5299 005a E0D1     		bne	.L700
 5300 005c 5A6C     		ldr	r2, [r3, #68]
 5301 005e 22F40042 		bic	r2, r2, #32768
 5302 0062 5A64     		str	r2, [r3, #68]
 5303 0064 DBE7     		b	.L700
 5304              	.L702:
 5305 0066 042D     		cmp	r5, #4
 5306 0068 05D0     		beq	.L707
 5307 006a 082D     		cmp	r5, #8
 5308 006c 07D0     		beq	.L708
 5309 006e 0123     		movs	r3, #1
 5310 0070 84F84130 		strb	r3, [r4, #65]
 5311 0074 E6E7     		b	.L703
 5312              	.L707:
 5313 0076 0123     		movs	r3, #1
 5314 0078 84F83F30 		strb	r3, [r4, #63]
 5315 007c E2E7     		b	.L703
 5316              	.L708:
 5317 007e 0123     		movs	r3, #1
 5318 0080 84F84030 		strb	r3, [r4, #64]
 5319 0084 DEE7     		b	.L703
 5320              	.L710:
 5321 0086 00BF     		.align	2
 5322              	.L709:
 5323 0088 00000140 		.word	1073807360
 5325              		.section	.text.HAL_TIM_PWM_Start_IT,"ax",%progbits
 5326              		.align	1
 5327              		.global	HAL_TIM_PWM_Start_IT
 5328              		.syntax unified
ARM GAS  /tmp/cc01cbqV.s 			page 91


 5329              		.thumb
 5330              		.thumb_func
 5331              		.fpu fpv4-sp-d16
 5333              	HAL_TIM_PWM_Start_IT:
 5334              		@ args = 0, pretend = 0, frame = 0
 5335              		@ frame_needed = 0, uses_anonymous_args = 0
 5336 0000 10B5     		push	{r4, lr}
 5337 0002 0446     		mov	r4, r0
 5338 0004 0846     		mov	r0, r1
 5339 0006 C1B9     		cbnz	r1, .L712
 5340 0008 94F83E30 		ldrb	r3, [r4, #62]	@ zero_extendqisi2
 5341 000c DBB2     		uxtb	r3, r3
 5342 000e 013B     		subs	r3, r3, #1
 5343 0010 18BF     		it	ne
 5344 0012 0123     		movne	r3, #1
 5345              	.L713:
 5346 0014 002B     		cmp	r3, #0
 5347 0016 40F09180 		bne	.L731
 5348 001a 38BB     		cbnz	r0, .L717
 5349 001c 0223     		movs	r3, #2
 5350 001e 84F83E30 		strb	r3, [r4, #62]
 5351              	.L718:
 5352 0022 0C28     		cmp	r0, #12
 5353 0024 00F28C80 		bhi	.L732
 5354 0028 DFE800F0 		tbb	[pc, r0]
 5355              	.L722:
 5356 002c 30       		.byte	(.L725-.L722)/2
 5357 002d 8A       		.byte	(.L732-.L722)/2
 5358 002e 8A       		.byte	(.L732-.L722)/2
 5359 002f 8A       		.byte	(.L732-.L722)/2
 5360 0030 6B       		.byte	(.L724-.L722)/2
 5361 0031 8A       		.byte	(.L732-.L722)/2
 5362 0032 8A       		.byte	(.L732-.L722)/2
 5363 0033 8A       		.byte	(.L732-.L722)/2
 5364 0034 71       		.byte	(.L723-.L722)/2
 5365 0035 8A       		.byte	(.L732-.L722)/2
 5366 0036 8A       		.byte	(.L732-.L722)/2
 5367 0037 8A       		.byte	(.L732-.L722)/2
 5368 0038 77       		.byte	(.L721-.L722)/2
 5369 0039 00       		.p2align 1
 5370              	.L712:
 5371 003a 0429     		cmp	r1, #4
 5372 003c 08D0     		beq	.L735
 5373 003e 0829     		cmp	r1, #8
 5374 0040 0DD0     		beq	.L736
 5375 0042 94F84130 		ldrb	r3, [r4, #65]	@ zero_extendqisi2
 5376 0046 DBB2     		uxtb	r3, r3
 5377 0048 013B     		subs	r3, r3, #1
 5378 004a 18BF     		it	ne
 5379 004c 0123     		movne	r3, #1
 5380 004e E1E7     		b	.L713
 5381              	.L735:
 5382 0050 94F83F30 		ldrb	r3, [r4, #63]	@ zero_extendqisi2
 5383 0054 DBB2     		uxtb	r3, r3
 5384 0056 013B     		subs	r3, r3, #1
 5385 0058 18BF     		it	ne
 5386 005a 0123     		movne	r3, #1
ARM GAS  /tmp/cc01cbqV.s 			page 92


 5387 005c DAE7     		b	.L713
 5388              	.L736:
 5389 005e 94F84030 		ldrb	r3, [r4, #64]	@ zero_extendqisi2
 5390 0062 DBB2     		uxtb	r3, r3
 5391 0064 013B     		subs	r3, r3, #1
 5392 0066 18BF     		it	ne
 5393 0068 0123     		movne	r3, #1
 5394 006a D3E7     		b	.L713
 5395              	.L717:
 5396 006c 0428     		cmp	r0, #4
 5397 006e 05D0     		beq	.L737
 5398 0070 0828     		cmp	r0, #8
 5399 0072 07D0     		beq	.L738
 5400 0074 0223     		movs	r3, #2
 5401 0076 84F84130 		strb	r3, [r4, #65]
 5402 007a D2E7     		b	.L718
 5403              	.L737:
 5404 007c 0223     		movs	r3, #2
 5405 007e 84F83F30 		strb	r3, [r4, #63]
 5406 0082 CEE7     		b	.L718
 5407              	.L738:
 5408 0084 0223     		movs	r3, #2
 5409 0086 84F84030 		strb	r3, [r4, #64]
 5410 008a CAE7     		b	.L718
 5411              	.L725:
 5412 008c 2268     		ldr	r2, [r4]
 5413 008e D368     		ldr	r3, [r2, #12]
 5414 0090 43F00203 		orr	r3, r3, #2
 5415 0094 D360     		str	r3, [r2, #12]
 5416              	.L726:
 5417 0096 0122     		movs	r2, #1
 5418 0098 0146     		mov	r1, r0
 5419 009a 2068     		ldr	r0, [r4]
 5420 009c FFF7FEFF 		bl	TIM_CCxChannelCmd
 5421 00a0 2368     		ldr	r3, [r4]
 5422 00a2 294A     		ldr	r2, .L739
 5423 00a4 9342     		cmp	r3, r2
 5424 00a6 03D0     		beq	.L727
 5425 00a8 02F58062 		add	r2, r2, #1024
 5426 00ac 9342     		cmp	r3, r2
 5427 00ae 03D1     		bne	.L728
 5428              	.L727:
 5429 00b0 5A6C     		ldr	r2, [r3, #68]
 5430 00b2 42F40042 		orr	r2, r2, #32768
 5431 00b6 5A64     		str	r2, [r3, #68]
 5432              	.L728:
 5433 00b8 2368     		ldr	r3, [r4]
 5434 00ba 234A     		ldr	r2, .L739
 5435 00bc 9342     		cmp	r3, r2
 5436 00be 32D0     		beq	.L729
 5437 00c0 B3F1804F 		cmp	r3, #1073741824
 5438 00c4 2FD0     		beq	.L729
 5439 00c6 A2F57C42 		sub	r2, r2, #64512
 5440 00ca 9342     		cmp	r3, r2
 5441 00cc 2BD0     		beq	.L729
 5442 00ce 02F58062 		add	r2, r2, #1024
 5443 00d2 9342     		cmp	r3, r2
ARM GAS  /tmp/cc01cbqV.s 			page 93


 5444 00d4 27D0     		beq	.L729
 5445 00d6 02F58062 		add	r2, r2, #1024
 5446 00da 9342     		cmp	r3, r2
 5447 00dc 23D0     		beq	.L729
 5448 00de 02F57842 		add	r2, r2, #63488
 5449 00e2 9342     		cmp	r3, r2
 5450 00e4 1FD0     		beq	.L729
 5451 00e6 02F57052 		add	r2, r2, #15360
 5452 00ea 9342     		cmp	r3, r2
 5453 00ec 1BD0     		beq	.L729
 5454 00ee A2F59432 		sub	r2, r2, #75776
 5455 00f2 9342     		cmp	r3, r2
 5456 00f4 17D0     		beq	.L729
 5457 00f6 1A68     		ldr	r2, [r3]
 5458 00f8 42F00102 		orr	r2, r2, #1
 5459 00fc 1A60     		str	r2, [r3]
 5460 00fe 0020     		movs	r0, #0
 5461 0100 1FE0     		b	.L716
 5462              	.L724:
 5463 0102 2268     		ldr	r2, [r4]
 5464 0104 D368     		ldr	r3, [r2, #12]
 5465 0106 43F00403 		orr	r3, r3, #4
 5466 010a D360     		str	r3, [r2, #12]
 5467 010c C3E7     		b	.L726
 5468              	.L723:
 5469 010e 2268     		ldr	r2, [r4]
 5470 0110 D368     		ldr	r3, [r2, #12]
 5471 0112 43F00803 		orr	r3, r3, #8
 5472 0116 D360     		str	r3, [r2, #12]
 5473 0118 BDE7     		b	.L726
 5474              	.L721:
 5475 011a 2268     		ldr	r2, [r4]
 5476 011c D368     		ldr	r3, [r2, #12]
 5477 011e 43F01003 		orr	r3, r3, #16
 5478 0122 D360     		str	r3, [r2, #12]
 5479 0124 B7E7     		b	.L726
 5480              	.L729:
 5481 0126 9A68     		ldr	r2, [r3, #8]
 5482 0128 02F00702 		and	r2, r2, #7
 5483 012c 062A     		cmp	r2, #6
 5484 012e 09D0     		beq	.L733
 5485 0130 1A68     		ldr	r2, [r3]
 5486 0132 42F00102 		orr	r2, r2, #1
 5487 0136 1A60     		str	r2, [r3]
 5488 0138 0020     		movs	r0, #0
 5489 013a 02E0     		b	.L716
 5490              	.L731:
 5491 013c 0120     		movs	r0, #1
 5492 013e 00E0     		b	.L716
 5493              	.L732:
 5494 0140 0120     		movs	r0, #1
 5495              	.L716:
 5496 0142 10BD     		pop	{r4, pc}
 5497              	.L733:
 5498 0144 0020     		movs	r0, #0
 5499 0146 FCE7     		b	.L716
 5500              	.L740:
ARM GAS  /tmp/cc01cbqV.s 			page 94


 5501              		.align	2
 5502              	.L739:
 5503 0148 00000140 		.word	1073807360
 5505              		.section	.text.HAL_TIM_PWM_Stop_IT,"ax",%progbits
 5506              		.align	1
 5507              		.global	HAL_TIM_PWM_Stop_IT
 5508              		.syntax unified
 5509              		.thumb
 5510              		.thumb_func
 5511              		.fpu fpv4-sp-d16
 5513              	HAL_TIM_PWM_Stop_IT:
 5514              		@ args = 0, pretend = 0, frame = 0
 5515              		@ frame_needed = 0, uses_anonymous_args = 0
 5516 0000 38B5     		push	{r3, r4, r5, lr}
 5517 0002 0546     		mov	r5, r0
 5518 0004 0C46     		mov	r4, r1
 5519 0006 0C29     		cmp	r1, #12
 5520 0008 63D8     		bhi	.L755
 5521 000a DFE801F0 		tbb	[pc, r1]
 5522              	.L744:
 5523 000e 07       		.byte	(.L747-.L744)/2
 5524 000f 62       		.byte	(.L755-.L744)/2
 5525 0010 62       		.byte	(.L755-.L744)/2
 5526 0011 62       		.byte	(.L755-.L744)/2
 5527 0012 2E       		.byte	(.L746-.L744)/2
 5528 0013 62       		.byte	(.L755-.L744)/2
 5529 0014 62       		.byte	(.L755-.L744)/2
 5530 0015 62       		.byte	(.L755-.L744)/2
 5531 0016 34       		.byte	(.L745-.L744)/2
 5532 0017 62       		.byte	(.L755-.L744)/2
 5533 0018 62       		.byte	(.L755-.L744)/2
 5534 0019 62       		.byte	(.L755-.L744)/2
 5535 001a 3A       		.byte	(.L743-.L744)/2
 5536 001b 00       		.p2align 1
 5537              	.L747:
 5538 001c 0268     		ldr	r2, [r0]
 5539 001e D368     		ldr	r3, [r2, #12]
 5540 0020 23F00203 		bic	r3, r3, #2
 5541 0024 D360     		str	r3, [r2, #12]
 5542              	.L748:
 5543 0026 0022     		movs	r2, #0
 5544 0028 2146     		mov	r1, r4
 5545 002a 2868     		ldr	r0, [r5]
 5546 002c FFF7FEFF 		bl	TIM_CCxChannelCmd
 5547 0030 2B68     		ldr	r3, [r5]
 5548 0032 294A     		ldr	r2, .L759
 5549 0034 9342     		cmp	r3, r2
 5550 0036 2AD0     		beq	.L749
 5551 0038 02F58062 		add	r2, r2, #1024
 5552 003c 9342     		cmp	r3, r2
 5553 003e 26D0     		beq	.L749
 5554              	.L750:
 5555 0040 2B68     		ldr	r3, [r5]
 5556 0042 196A     		ldr	r1, [r3, #32]
 5557 0044 41F21112 		movw	r2, #4369
 5558 0048 1142     		tst	r1, r2
 5559 004a 08D1     		bne	.L751
ARM GAS  /tmp/cc01cbqV.s 			page 95


 5560 004c 196A     		ldr	r1, [r3, #32]
 5561 004e 40F24442 		movw	r2, #1092
 5562 0052 1142     		tst	r1, r2
 5563 0054 03D1     		bne	.L751
 5564 0056 1A68     		ldr	r2, [r3]
 5565 0058 22F00102 		bic	r2, r2, #1
 5566 005c 1A60     		str	r2, [r3]
 5567              	.L751:
 5568 005e 2CBB     		cbnz	r4, .L752
 5569 0060 0123     		movs	r3, #1
 5570 0062 85F83E30 		strb	r3, [r5, #62]
 5571 0066 0020     		movs	r0, #0
 5572 0068 34E0     		b	.L742
 5573              	.L746:
 5574 006a 0268     		ldr	r2, [r0]
 5575 006c D368     		ldr	r3, [r2, #12]
 5576 006e 23F00403 		bic	r3, r3, #4
 5577 0072 D360     		str	r3, [r2, #12]
 5578 0074 D7E7     		b	.L748
 5579              	.L745:
 5580 0076 0268     		ldr	r2, [r0]
 5581 0078 D368     		ldr	r3, [r2, #12]
 5582 007a 23F00803 		bic	r3, r3, #8
 5583 007e D360     		str	r3, [r2, #12]
 5584 0080 D1E7     		b	.L748
 5585              	.L743:
 5586 0082 0268     		ldr	r2, [r0]
 5587 0084 D368     		ldr	r3, [r2, #12]
 5588 0086 23F01003 		bic	r3, r3, #16
 5589 008a D360     		str	r3, [r2, #12]
 5590 008c CBE7     		b	.L748
 5591              	.L749:
 5592 008e 196A     		ldr	r1, [r3, #32]
 5593 0090 41F21112 		movw	r2, #4369
 5594 0094 1142     		tst	r1, r2
 5595 0096 D3D1     		bne	.L750
 5596 0098 196A     		ldr	r1, [r3, #32]
 5597 009a 40F24442 		movw	r2, #1092
 5598 009e 1142     		tst	r1, r2
 5599 00a0 CED1     		bne	.L750
 5600 00a2 5A6C     		ldr	r2, [r3, #68]
 5601 00a4 22F40042 		bic	r2, r2, #32768
 5602 00a8 5A64     		str	r2, [r3, #68]
 5603 00aa C9E7     		b	.L750
 5604              	.L752:
 5605 00ac 042C     		cmp	r4, #4
 5606 00ae 06D0     		beq	.L757
 5607 00b0 082C     		cmp	r4, #8
 5608 00b2 09D0     		beq	.L758
 5609 00b4 0123     		movs	r3, #1
 5610 00b6 85F84130 		strb	r3, [r5, #65]
 5611 00ba 0020     		movs	r0, #0
 5612 00bc 0AE0     		b	.L742
 5613              	.L757:
 5614 00be 0123     		movs	r3, #1
 5615 00c0 85F83F30 		strb	r3, [r5, #63]
 5616 00c4 0020     		movs	r0, #0
ARM GAS  /tmp/cc01cbqV.s 			page 96


 5617 00c6 05E0     		b	.L742
 5618              	.L758:
 5619 00c8 0123     		movs	r3, #1
 5620 00ca 85F84030 		strb	r3, [r5, #64]
 5621 00ce 0020     		movs	r0, #0
 5622 00d0 00E0     		b	.L742
 5623              	.L755:
 5624 00d2 0120     		movs	r0, #1
 5625              	.L742:
 5626 00d4 38BD     		pop	{r3, r4, r5, pc}
 5627              	.L760:
 5628 00d6 00BF     		.align	2
 5629              	.L759:
 5630 00d8 00000140 		.word	1073807360
 5632              		.section	.text.HAL_TIM_PWM_Start_DMA,"ax",%progbits
 5633              		.align	1
 5634              		.global	HAL_TIM_PWM_Start_DMA
 5635              		.syntax unified
 5636              		.thumb
 5637              		.thumb_func
 5638              		.fpu fpv4-sp-d16
 5640              	HAL_TIM_PWM_Start_DMA:
 5641              		@ args = 0, pretend = 0, frame = 0
 5642              		@ frame_needed = 0, uses_anonymous_args = 0
 5643 0000 70B5     		push	{r4, r5, r6, lr}
 5644 0002 0446     		mov	r4, r0
 5645 0004 1646     		mov	r6, r2
 5646 0006 0D46     		mov	r5, r1
 5647 0008 0029     		cmp	r1, #0
 5648 000a 2ED1     		bne	.L762
 5649 000c 90F83E00 		ldrb	r0, [r0, #62]	@ zero_extendqisi2
 5650 0010 C0B2     		uxtb	r0, r0
 5651 0012 0228     		cmp	r0, #2
 5652 0014 14BF     		ite	ne
 5653 0016 0020     		movne	r0, #0
 5654 0018 0120     		moveq	r0, #1
 5655              	.L763:
 5656 001a 0028     		cmp	r0, #0
 5657 001c 40F00D81 		bne	.L786
 5658 0020 002D     		cmp	r5, #0
 5659 0022 3ED1     		bne	.L767
 5660 0024 94F83E20 		ldrb	r2, [r4, #62]	@ zero_extendqisi2
 5661 0028 D2B2     		uxtb	r2, r2
 5662 002a 012A     		cmp	r2, #1
 5663 002c 14BF     		ite	ne
 5664 002e 0022     		movne	r2, #0
 5665 0030 0122     		moveq	r2, #1
 5666              	.L768:
 5667 0032 002A     		cmp	r2, #0
 5668 0034 00F00381 		beq	.L787
 5669 0038 002E     		cmp	r6, #0
 5670 003a 4ED0     		beq	.L796
 5671              	.L771:
 5672 003c 002D     		cmp	r5, #0
 5673 003e 50D1     		bne	.L772
 5674 0040 0222     		movs	r2, #2
 5675 0042 84F83E20 		strb	r2, [r4, #62]
ARM GAS  /tmp/cc01cbqV.s 			page 97


 5676              	.L773:
 5677 0046 0C2D     		cmp	r5, #12
 5678 0048 00F2FB80 		bhi	.L789
 5679 004c DFE815F0 		tbh	[pc, r5, lsl #1]
 5680              	.L777:
 5681 0050 5900     		.2byte	(.L780-.L777)/2
 5682 0052 F900     		.2byte	(.L789-.L777)/2
 5683 0054 F900     		.2byte	(.L789-.L777)/2
 5684 0056 F900     		.2byte	(.L789-.L777)/2
 5685 0058 A600     		.2byte	(.L779-.L777)/2
 5686 005a F900     		.2byte	(.L789-.L777)/2
 5687 005c F900     		.2byte	(.L789-.L777)/2
 5688 005e F900     		.2byte	(.L789-.L777)/2
 5689 0060 BD00     		.2byte	(.L778-.L777)/2
 5690 0062 F900     		.2byte	(.L789-.L777)/2
 5691 0064 F900     		.2byte	(.L789-.L777)/2
 5692 0066 F900     		.2byte	(.L789-.L777)/2
 5693 0068 D400     		.2byte	(.L776-.L777)/2
 5694              		.p2align 1
 5695              	.L762:
 5696 006a 0429     		cmp	r1, #4
 5697 006c 09D0     		beq	.L797
 5698 006e 0829     		cmp	r1, #8
 5699 0070 0FD0     		beq	.L798
 5700 0072 90F84100 		ldrb	r0, [r0, #65]	@ zero_extendqisi2
 5701 0076 C0B2     		uxtb	r0, r0
 5702 0078 0228     		cmp	r0, #2
 5703 007a 14BF     		ite	ne
 5704 007c 0020     		movne	r0, #0
 5705 007e 0120     		moveq	r0, #1
 5706 0080 CBE7     		b	.L763
 5707              	.L797:
 5708 0082 90F83F00 		ldrb	r0, [r0, #63]	@ zero_extendqisi2
 5709 0086 C0B2     		uxtb	r0, r0
 5710 0088 0228     		cmp	r0, #2
 5711 008a 14BF     		ite	ne
 5712 008c 0020     		movne	r0, #0
 5713 008e 0120     		moveq	r0, #1
 5714 0090 C3E7     		b	.L763
 5715              	.L798:
 5716 0092 90F84000 		ldrb	r0, [r0, #64]	@ zero_extendqisi2
 5717 0096 C0B2     		uxtb	r0, r0
 5718 0098 0228     		cmp	r0, #2
 5719 009a 14BF     		ite	ne
 5720 009c 0020     		movne	r0, #0
 5721 009e 0120     		moveq	r0, #1
 5722 00a0 BBE7     		b	.L763
 5723              	.L767:
 5724 00a2 042D     		cmp	r5, #4
 5725 00a4 09D0     		beq	.L799
 5726 00a6 082D     		cmp	r5, #8
 5727 00a8 0FD0     		beq	.L800
 5728 00aa 94F84120 		ldrb	r2, [r4, #65]	@ zero_extendqisi2
 5729 00ae D2B2     		uxtb	r2, r2
 5730 00b0 012A     		cmp	r2, #1
 5731 00b2 14BF     		ite	ne
 5732 00b4 0022     		movne	r2, #0
ARM GAS  /tmp/cc01cbqV.s 			page 98


 5733 00b6 0122     		moveq	r2, #1
 5734 00b8 BBE7     		b	.L768
 5735              	.L799:
 5736 00ba 94F83F20 		ldrb	r2, [r4, #63]	@ zero_extendqisi2
 5737 00be D2B2     		uxtb	r2, r2
 5738 00c0 012A     		cmp	r2, #1
 5739 00c2 14BF     		ite	ne
 5740 00c4 0022     		movne	r2, #0
 5741 00c6 0122     		moveq	r2, #1
 5742 00c8 B3E7     		b	.L768
 5743              	.L800:
 5744 00ca 94F84020 		ldrb	r2, [r4, #64]	@ zero_extendqisi2
 5745 00ce D2B2     		uxtb	r2, r2
 5746 00d0 012A     		cmp	r2, #1
 5747 00d2 14BF     		ite	ne
 5748 00d4 0022     		movne	r2, #0
 5749 00d6 0122     		moveq	r2, #1
 5750 00d8 ABE7     		b	.L768
 5751              	.L796:
 5752 00da 002B     		cmp	r3, #0
 5753 00dc AED0     		beq	.L771
 5754 00de 0120     		movs	r0, #1
 5755 00e0 AEE0     		b	.L766
 5756              	.L772:
 5757 00e2 042D     		cmp	r5, #4
 5758 00e4 05D0     		beq	.L801
 5759 00e6 082D     		cmp	r5, #8
 5760 00e8 07D0     		beq	.L802
 5761 00ea 0222     		movs	r2, #2
 5762 00ec 84F84120 		strb	r2, [r4, #65]
 5763 00f0 A9E7     		b	.L773
 5764              	.L801:
 5765 00f2 0222     		movs	r2, #2
 5766 00f4 84F83F20 		strb	r2, [r4, #63]
 5767 00f8 A5E7     		b	.L773
 5768              	.L802:
 5769 00fa 0222     		movs	r2, #2
 5770 00fc 84F84020 		strb	r2, [r4, #64]
 5771 0100 A1E7     		b	.L773
 5772              	.L780:
 5773 0102 626A     		ldr	r2, [r4, #36]
 5774 0104 5549     		ldr	r1, .L803
 5775 0106 D163     		str	r1, [r2, #60]
 5776 0108 626A     		ldr	r2, [r4, #36]
 5777 010a 5549     		ldr	r1, .L803+4
 5778 010c 1164     		str	r1, [r2, #64]
 5779 010e 626A     		ldr	r2, [r4, #36]
 5780 0110 5449     		ldr	r1, .L803+8
 5781 0112 D164     		str	r1, [r2, #76]
 5782 0114 2268     		ldr	r2, [r4]
 5783 0116 3432     		adds	r2, r2, #52
 5784 0118 3146     		mov	r1, r6
 5785 011a 606A     		ldr	r0, [r4, #36]
 5786 011c FFF7FEFF 		bl	HAL_DMA_Start_IT
 5787 0120 0028     		cmp	r0, #0
 5788 0122 40F09080 		bne	.L790
 5789 0126 2268     		ldr	r2, [r4]
ARM GAS  /tmp/cc01cbqV.s 			page 99


 5790 0128 D368     		ldr	r3, [r2, #12]
 5791 012a 43F40073 		orr	r3, r3, #512
 5792 012e D360     		str	r3, [r2, #12]
 5793              	.L781:
 5794 0130 0122     		movs	r2, #1
 5795 0132 2946     		mov	r1, r5
 5796 0134 2068     		ldr	r0, [r4]
 5797 0136 FFF7FEFF 		bl	TIM_CCxChannelCmd
 5798 013a 2368     		ldr	r3, [r4]
 5799 013c 4A4A     		ldr	r2, .L803+12
 5800 013e 9342     		cmp	r3, r2
 5801 0140 03D0     		beq	.L782
 5802 0142 02F58062 		add	r2, r2, #1024
 5803 0146 9342     		cmp	r3, r2
 5804 0148 03D1     		bne	.L783
 5805              	.L782:
 5806 014a 5A6C     		ldr	r2, [r3, #68]
 5807 014c 42F40042 		orr	r2, r2, #32768
 5808 0150 5A64     		str	r2, [r3, #68]
 5809              	.L783:
 5810 0152 2368     		ldr	r3, [r4]
 5811 0154 444A     		ldr	r2, .L803+12
 5812 0156 9342     		cmp	r3, r2
 5813 0158 64D0     		beq	.L784
 5814 015a B3F1804F 		cmp	r3, #1073741824
 5815 015e 61D0     		beq	.L784
 5816 0160 A2F57C42 		sub	r2, r2, #64512
 5817 0164 9342     		cmp	r3, r2
 5818 0166 5DD0     		beq	.L784
 5819 0168 02F58062 		add	r2, r2, #1024
 5820 016c 9342     		cmp	r3, r2
 5821 016e 59D0     		beq	.L784
 5822 0170 02F58062 		add	r2, r2, #1024
 5823 0174 9342     		cmp	r3, r2
 5824 0176 55D0     		beq	.L784
 5825 0178 02F57842 		add	r2, r2, #63488
 5826 017c 9342     		cmp	r3, r2
 5827 017e 51D0     		beq	.L784
 5828 0180 02F57052 		add	r2, r2, #15360
 5829 0184 9342     		cmp	r3, r2
 5830 0186 4DD0     		beq	.L784
 5831 0188 A2F59432 		sub	r2, r2, #75776
 5832 018c 9342     		cmp	r3, r2
 5833 018e 49D0     		beq	.L784
 5834 0190 1A68     		ldr	r2, [r3]
 5835 0192 42F00102 		orr	r2, r2, #1
 5836 0196 1A60     		str	r2, [r3]
 5837 0198 0020     		movs	r0, #0
 5838 019a 51E0     		b	.L766
 5839              	.L779:
 5840 019c A26A     		ldr	r2, [r4, #40]
 5841 019e 2F49     		ldr	r1, .L803
 5842 01a0 D163     		str	r1, [r2, #60]
 5843 01a2 A26A     		ldr	r2, [r4, #40]
 5844 01a4 2E49     		ldr	r1, .L803+4
 5845 01a6 1164     		str	r1, [r2, #64]
 5846 01a8 A26A     		ldr	r2, [r4, #40]
ARM GAS  /tmp/cc01cbqV.s 			page 100


 5847 01aa 2E49     		ldr	r1, .L803+8
 5848 01ac D164     		str	r1, [r2, #76]
 5849 01ae 2268     		ldr	r2, [r4]
 5850 01b0 3832     		adds	r2, r2, #56
 5851 01b2 3146     		mov	r1, r6
 5852 01b4 A06A     		ldr	r0, [r4, #40]
 5853 01b6 FFF7FEFF 		bl	HAL_DMA_Start_IT
 5854 01ba 0028     		cmp	r0, #0
 5855 01bc 45D1     		bne	.L791
 5856 01be 2268     		ldr	r2, [r4]
 5857 01c0 D368     		ldr	r3, [r2, #12]
 5858 01c2 43F48063 		orr	r3, r3, #1024
 5859 01c6 D360     		str	r3, [r2, #12]
 5860 01c8 B2E7     		b	.L781
 5861              	.L778:
 5862 01ca E26A     		ldr	r2, [r4, #44]
 5863 01cc 2349     		ldr	r1, .L803
 5864 01ce D163     		str	r1, [r2, #60]
 5865 01d0 E26A     		ldr	r2, [r4, #44]
 5866 01d2 2349     		ldr	r1, .L803+4
 5867 01d4 1164     		str	r1, [r2, #64]
 5868 01d6 E26A     		ldr	r2, [r4, #44]
 5869 01d8 2249     		ldr	r1, .L803+8
 5870 01da D164     		str	r1, [r2, #76]
 5871 01dc 2268     		ldr	r2, [r4]
 5872 01de 3C32     		adds	r2, r2, #60
 5873 01e0 3146     		mov	r1, r6
 5874 01e2 E06A     		ldr	r0, [r4, #44]
 5875 01e4 FFF7FEFF 		bl	HAL_DMA_Start_IT
 5876 01e8 0028     		cmp	r0, #0
 5877 01ea 30D1     		bne	.L792
 5878 01ec 2268     		ldr	r2, [r4]
 5879 01ee D368     		ldr	r3, [r2, #12]
 5880 01f0 43F40063 		orr	r3, r3, #2048
 5881 01f4 D360     		str	r3, [r2, #12]
 5882 01f6 9BE7     		b	.L781
 5883              	.L776:
 5884 01f8 226B     		ldr	r2, [r4, #48]
 5885 01fa 1849     		ldr	r1, .L803
 5886 01fc D163     		str	r1, [r2, #60]
 5887 01fe 226B     		ldr	r2, [r4, #48]
 5888 0200 1749     		ldr	r1, .L803+4
 5889 0202 1164     		str	r1, [r2, #64]
 5890 0204 226B     		ldr	r2, [r4, #48]
 5891 0206 1749     		ldr	r1, .L803+8
 5892 0208 D164     		str	r1, [r2, #76]
 5893 020a 2268     		ldr	r2, [r4]
 5894 020c 4032     		adds	r2, r2, #64
 5895 020e 3146     		mov	r1, r6
 5896 0210 206B     		ldr	r0, [r4, #48]
 5897 0212 FFF7FEFF 		bl	HAL_DMA_Start_IT
 5898 0216 E0B9     		cbnz	r0, .L793
 5899 0218 2268     		ldr	r2, [r4]
 5900 021a D368     		ldr	r3, [r2, #12]
 5901 021c 43F48053 		orr	r3, r3, #4096
 5902 0220 D360     		str	r3, [r2, #12]
 5903 0222 85E7     		b	.L781
ARM GAS  /tmp/cc01cbqV.s 			page 101


 5904              	.L784:
 5905 0224 9A68     		ldr	r2, [r3, #8]
 5906 0226 02F00702 		and	r2, r2, #7
 5907 022a 062A     		cmp	r2, #6
 5908 022c 13D0     		beq	.L794
 5909 022e 1A68     		ldr	r2, [r3]
 5910 0230 42F00102 		orr	r2, r2, #1
 5911 0234 1A60     		str	r2, [r3]
 5912 0236 0020     		movs	r0, #0
 5913 0238 02E0     		b	.L766
 5914              	.L786:
 5915 023a 0220     		movs	r0, #2
 5916 023c 00E0     		b	.L766
 5917              	.L787:
 5918 023e 0120     		movs	r0, #1
 5919              	.L766:
 5920 0240 70BD     		pop	{r4, r5, r6, pc}
 5921              	.L789:
 5922 0242 0120     		movs	r0, #1
 5923 0244 FCE7     		b	.L766
 5924              	.L790:
 5925 0246 0120     		movs	r0, #1
 5926 0248 FAE7     		b	.L766
 5927              	.L791:
 5928 024a 0120     		movs	r0, #1
 5929 024c F8E7     		b	.L766
 5930              	.L792:
 5931 024e 0120     		movs	r0, #1
 5932 0250 F6E7     		b	.L766
 5933              	.L793:
 5934 0252 0120     		movs	r0, #1
 5935 0254 F4E7     		b	.L766
 5936              	.L794:
 5937 0256 0020     		movs	r0, #0
 5938 0258 F2E7     		b	.L766
 5939              	.L804:
 5940 025a 00BF     		.align	2
 5941              	.L803:
 5942 025c 00000000 		.word	TIM_DMADelayPulseCplt
 5943 0260 00000000 		.word	TIM_DMADelayPulseHalfCplt
 5944 0264 00000000 		.word	TIM_DMAError
 5945 0268 00000140 		.word	1073807360
 5947              		.section	.text.HAL_TIM_PWM_Stop_DMA,"ax",%progbits
 5948              		.align	1
 5949              		.global	HAL_TIM_PWM_Stop_DMA
 5950              		.syntax unified
 5951              		.thumb
 5952              		.thumb_func
 5953              		.fpu fpv4-sp-d16
 5955              	HAL_TIM_PWM_Stop_DMA:
 5956              		@ args = 0, pretend = 0, frame = 0
 5957              		@ frame_needed = 0, uses_anonymous_args = 0
 5958 0000 38B5     		push	{r3, r4, r5, lr}
 5959 0002 0446     		mov	r4, r0
 5960 0004 0D46     		mov	r5, r1
 5961 0006 0C29     		cmp	r1, #12
 5962 0008 70D8     		bhi	.L819
ARM GAS  /tmp/cc01cbqV.s 			page 102


 5963 000a DFE801F0 		tbb	[pc, r1]
 5964              	.L808:
 5965 000e 07       		.byte	(.L811-.L808)/2
 5966 000f 6F       		.byte	(.L819-.L808)/2
 5967 0010 6F       		.byte	(.L819-.L808)/2
 5968 0011 6F       		.byte	(.L819-.L808)/2
 5969 0012 32       		.byte	(.L810-.L808)/2
 5970 0013 6F       		.byte	(.L819-.L808)/2
 5971 0014 6F       		.byte	(.L819-.L808)/2
 5972 0015 6F       		.byte	(.L819-.L808)/2
 5973 0016 3B       		.byte	(.L809-.L808)/2
 5974 0017 6F       		.byte	(.L819-.L808)/2
 5975 0018 6F       		.byte	(.L819-.L808)/2
 5976 0019 6F       		.byte	(.L819-.L808)/2
 5977 001a 44       		.byte	(.L807-.L808)/2
 5978 001b 00       		.p2align 1
 5979              	.L811:
 5980 001c 0268     		ldr	r2, [r0]
 5981 001e D368     		ldr	r3, [r2, #12]
 5982 0020 23F40073 		bic	r3, r3, #512
 5983 0024 D360     		str	r3, [r2, #12]
 5984 0026 406A     		ldr	r0, [r0, #36]
 5985 0028 FFF7FEFF 		bl	HAL_DMA_Abort_IT
 5986              	.L812:
 5987 002c 0022     		movs	r2, #0
 5988 002e 2946     		mov	r1, r5
 5989 0030 2068     		ldr	r0, [r4]
 5990 0032 FFF7FEFF 		bl	TIM_CCxChannelCmd
 5991 0036 2368     		ldr	r3, [r4]
 5992 0038 2D4A     		ldr	r2, .L823
 5993 003a 9342     		cmp	r3, r2
 5994 003c 34D0     		beq	.L813
 5995 003e 02F58062 		add	r2, r2, #1024
 5996 0042 9342     		cmp	r3, r2
 5997 0044 30D0     		beq	.L813
 5998              	.L814:
 5999 0046 2368     		ldr	r3, [r4]
 6000 0048 196A     		ldr	r1, [r3, #32]
 6001 004a 41F21112 		movw	r2, #4369
 6002 004e 1142     		tst	r1, r2
 6003 0050 08D1     		bne	.L815
 6004 0052 196A     		ldr	r1, [r3, #32]
 6005 0054 40F24442 		movw	r2, #1092
 6006 0058 1142     		tst	r1, r2
 6007 005a 03D1     		bne	.L815
 6008 005c 1A68     		ldr	r2, [r3]
 6009 005e 22F00102 		bic	r2, r2, #1
 6010 0062 1A60     		str	r2, [r3]
 6011              	.L815:
 6012 0064 002D     		cmp	r5, #0
 6013 0066 2ED1     		bne	.L816
 6014 0068 0123     		movs	r3, #1
 6015 006a 84F83E30 		strb	r3, [r4, #62]
 6016 006e 0020     		movs	r0, #0
 6017 0070 3DE0     		b	.L806
 6018              	.L810:
 6019 0072 0268     		ldr	r2, [r0]
ARM GAS  /tmp/cc01cbqV.s 			page 103


 6020 0074 D368     		ldr	r3, [r2, #12]
 6021 0076 23F48063 		bic	r3, r3, #1024
 6022 007a D360     		str	r3, [r2, #12]
 6023 007c 806A     		ldr	r0, [r0, #40]
 6024 007e FFF7FEFF 		bl	HAL_DMA_Abort_IT
 6025 0082 D3E7     		b	.L812
 6026              	.L809:
 6027 0084 0268     		ldr	r2, [r0]
 6028 0086 D368     		ldr	r3, [r2, #12]
 6029 0088 23F40063 		bic	r3, r3, #2048
 6030 008c D360     		str	r3, [r2, #12]
 6031 008e C06A     		ldr	r0, [r0, #44]
 6032 0090 FFF7FEFF 		bl	HAL_DMA_Abort_IT
 6033 0094 CAE7     		b	.L812
 6034              	.L807:
 6035 0096 0268     		ldr	r2, [r0]
 6036 0098 D368     		ldr	r3, [r2, #12]
 6037 009a 23F48053 		bic	r3, r3, #4096
 6038 009e D360     		str	r3, [r2, #12]
 6039 00a0 006B     		ldr	r0, [r0, #48]
 6040 00a2 FFF7FEFF 		bl	HAL_DMA_Abort_IT
 6041 00a6 C1E7     		b	.L812
 6042              	.L813:
 6043 00a8 196A     		ldr	r1, [r3, #32]
 6044 00aa 41F21112 		movw	r2, #4369
 6045 00ae 1142     		tst	r1, r2
 6046 00b0 C9D1     		bne	.L814
 6047 00b2 196A     		ldr	r1, [r3, #32]
 6048 00b4 40F24442 		movw	r2, #1092
 6049 00b8 1142     		tst	r1, r2
 6050 00ba C4D1     		bne	.L814
 6051 00bc 5A6C     		ldr	r2, [r3, #68]
 6052 00be 22F40042 		bic	r2, r2, #32768
 6053 00c2 5A64     		str	r2, [r3, #68]
 6054 00c4 BFE7     		b	.L814
 6055              	.L816:
 6056 00c6 042D     		cmp	r5, #4
 6057 00c8 06D0     		beq	.L821
 6058 00ca 082D     		cmp	r5, #8
 6059 00cc 09D0     		beq	.L822
 6060 00ce 0123     		movs	r3, #1
 6061 00d0 84F84130 		strb	r3, [r4, #65]
 6062 00d4 0020     		movs	r0, #0
 6063 00d6 0AE0     		b	.L806
 6064              	.L821:
 6065 00d8 0123     		movs	r3, #1
 6066 00da 84F83F30 		strb	r3, [r4, #63]
 6067 00de 0020     		movs	r0, #0
 6068 00e0 05E0     		b	.L806
 6069              	.L822:
 6070 00e2 0123     		movs	r3, #1
 6071 00e4 84F84030 		strb	r3, [r4, #64]
 6072 00e8 0020     		movs	r0, #0
 6073 00ea 00E0     		b	.L806
 6074              	.L819:
 6075 00ec 0120     		movs	r0, #1
 6076              	.L806:
ARM GAS  /tmp/cc01cbqV.s 			page 104


 6077 00ee 38BD     		pop	{r3, r4, r5, pc}
 6078              	.L824:
 6079              		.align	2
 6080              	.L823:
 6081 00f0 00000140 		.word	1073807360
 6083              		.section	.text.HAL_TIM_IC_Start,"ax",%progbits
 6084              		.align	1
 6085              		.global	HAL_TIM_IC_Start
 6086              		.syntax unified
 6087              		.thumb
 6088              		.thumb_func
 6089              		.fpu fpv4-sp-d16
 6091              	HAL_TIM_IC_Start:
 6092              		@ args = 0, pretend = 0, frame = 0
 6093              		@ frame_needed = 0, uses_anonymous_args = 0
 6094 0000 10B5     		push	{r4, lr}
 6095 0002 0446     		mov	r4, r0
 6096 0004 0B46     		mov	r3, r1
 6097 0006 0029     		cmp	r1, #0
 6098 0008 40D1     		bne	.L826
 6099 000a 90F83E00 		ldrb	r0, [r0, #62]	@ zero_extendqisi2
 6100 000e C0B2     		uxtb	r0, r0
 6101              	.L827:
 6102 0010 002B     		cmp	r3, #0
 6103 0012 4BD1     		bne	.L830
 6104 0014 94F84220 		ldrb	r2, [r4, #66]	@ zero_extendqisi2
 6105 0018 D2B2     		uxtb	r2, r2
 6106              	.L831:
 6107 001a 0128     		cmp	r0, #1
 6108 001c 40F08180 		bne	.L845
 6109 0020 012A     		cmp	r2, #1
 6110 0022 7FD1     		bne	.L834
 6111 0024 002B     		cmp	r3, #0
 6112 0026 51D1     		bne	.L835
 6113 0028 0222     		movs	r2, #2
 6114 002a 84F83E20 		strb	r2, [r4, #62]
 6115              	.L836:
 6116 002e 002B     		cmp	r3, #0
 6117 0030 5CD1     		bne	.L839
 6118 0032 0222     		movs	r2, #2
 6119 0034 84F84220 		strb	r2, [r4, #66]
 6120              	.L840:
 6121 0038 0122     		movs	r2, #1
 6122 003a 1946     		mov	r1, r3
 6123 003c 2068     		ldr	r0, [r4]
 6124 003e FFF7FEFF 		bl	TIM_CCxChannelCmd
 6125 0042 2368     		ldr	r3, [r4]
 6126 0044 394A     		ldr	r2, .L856
 6127 0046 9342     		cmp	r3, r2
 6128 0048 60D0     		beq	.L843
 6129 004a B3F1804F 		cmp	r3, #1073741824
 6130 004e 5DD0     		beq	.L843
 6131 0050 A2F57C42 		sub	r2, r2, #64512
 6132 0054 9342     		cmp	r3, r2
 6133 0056 59D0     		beq	.L843
 6134 0058 02F58062 		add	r2, r2, #1024
 6135 005c 9342     		cmp	r3, r2
ARM GAS  /tmp/cc01cbqV.s 			page 105


 6136 005e 55D0     		beq	.L843
 6137 0060 02F58062 		add	r2, r2, #1024
 6138 0064 9342     		cmp	r3, r2
 6139 0066 51D0     		beq	.L843
 6140 0068 02F57842 		add	r2, r2, #63488
 6141 006c 9342     		cmp	r3, r2
 6142 006e 4DD0     		beq	.L843
 6143 0070 02F57052 		add	r2, r2, #15360
 6144 0074 9342     		cmp	r3, r2
 6145 0076 49D0     		beq	.L843
 6146 0078 A2F59432 		sub	r2, r2, #75776
 6147 007c 9342     		cmp	r3, r2
 6148 007e 45D0     		beq	.L843
 6149 0080 1A68     		ldr	r2, [r3]
 6150 0082 42F00102 		orr	r2, r2, #1
 6151 0086 1A60     		str	r2, [r3]
 6152 0088 0020     		movs	r0, #0
 6153 008a 4BE0     		b	.L834
 6154              	.L826:
 6155 008c 0429     		cmp	r1, #4
 6156 008e 05D0     		beq	.L848
 6157 0090 0829     		cmp	r1, #8
 6158 0092 07D0     		beq	.L849
 6159 0094 90F84100 		ldrb	r0, [r0, #65]	@ zero_extendqisi2
 6160 0098 C0B2     		uxtb	r0, r0
 6161 009a B9E7     		b	.L827
 6162              	.L848:
 6163 009c 90F83F00 		ldrb	r0, [r0, #63]	@ zero_extendqisi2
 6164 00a0 C0B2     		uxtb	r0, r0
 6165 00a2 B5E7     		b	.L827
 6166              	.L849:
 6167 00a4 90F84000 		ldrb	r0, [r0, #64]	@ zero_extendqisi2
 6168 00a8 C0B2     		uxtb	r0, r0
 6169 00aa B1E7     		b	.L827
 6170              	.L830:
 6171 00ac 042B     		cmp	r3, #4
 6172 00ae 05D0     		beq	.L850
 6173 00b0 082B     		cmp	r3, #8
 6174 00b2 07D0     		beq	.L851
 6175 00b4 94F84520 		ldrb	r2, [r4, #69]	@ zero_extendqisi2
 6176 00b8 D2B2     		uxtb	r2, r2
 6177 00ba AEE7     		b	.L831
 6178              	.L850:
 6179 00bc 94F84320 		ldrb	r2, [r4, #67]	@ zero_extendqisi2
 6180 00c0 D2B2     		uxtb	r2, r2
 6181 00c2 AAE7     		b	.L831
 6182              	.L851:
 6183 00c4 94F84420 		ldrb	r2, [r4, #68]	@ zero_extendqisi2
 6184 00c8 D2B2     		uxtb	r2, r2
 6185 00ca A6E7     		b	.L831
 6186              	.L835:
 6187 00cc 042B     		cmp	r3, #4
 6188 00ce 05D0     		beq	.L852
 6189 00d0 082B     		cmp	r3, #8
 6190 00d2 07D0     		beq	.L853
 6191 00d4 0222     		movs	r2, #2
 6192 00d6 84F84120 		strb	r2, [r4, #65]
ARM GAS  /tmp/cc01cbqV.s 			page 106


 6193 00da A8E7     		b	.L836
 6194              	.L852:
 6195 00dc 0222     		movs	r2, #2
 6196 00de 84F83F20 		strb	r2, [r4, #63]
 6197 00e2 A4E7     		b	.L836
 6198              	.L853:
 6199 00e4 0222     		movs	r2, #2
 6200 00e6 84F84020 		strb	r2, [r4, #64]
 6201 00ea A0E7     		b	.L836
 6202              	.L839:
 6203 00ec 042B     		cmp	r3, #4
 6204 00ee 05D0     		beq	.L854
 6205 00f0 082B     		cmp	r3, #8
 6206 00f2 07D0     		beq	.L855
 6207 00f4 0222     		movs	r2, #2
 6208 00f6 84F84520 		strb	r2, [r4, #69]
 6209 00fa 9DE7     		b	.L840
 6210              	.L854:
 6211 00fc 0222     		movs	r2, #2
 6212 00fe 84F84320 		strb	r2, [r4, #67]
 6213 0102 99E7     		b	.L840
 6214              	.L855:
 6215 0104 0222     		movs	r2, #2
 6216 0106 84F84420 		strb	r2, [r4, #68]
 6217 010a 95E7     		b	.L840
 6218              	.L843:
 6219 010c 9A68     		ldr	r2, [r3, #8]
 6220 010e 02F00702 		and	r2, r2, #7
 6221 0112 062A     		cmp	r2, #6
 6222 0114 07D0     		beq	.L846
 6223 0116 1A68     		ldr	r2, [r3]
 6224 0118 42F00102 		orr	r2, r2, #1
 6225 011c 1A60     		str	r2, [r3]
 6226 011e 0020     		movs	r0, #0
 6227 0120 00E0     		b	.L834
 6228              	.L845:
 6229 0122 0120     		movs	r0, #1
 6230              	.L834:
 6231 0124 10BD     		pop	{r4, pc}
 6232              	.L846:
 6233 0126 0020     		movs	r0, #0
 6234 0128 FCE7     		b	.L834
 6235              	.L857:
 6236 012a 00BF     		.align	2
 6237              	.L856:
 6238 012c 00000140 		.word	1073807360
 6240              		.section	.text.HAL_TIM_IC_Stop,"ax",%progbits
 6241              		.align	1
 6242              		.global	HAL_TIM_IC_Stop
 6243              		.syntax unified
 6244              		.thumb
 6245              		.thumb_func
 6246              		.fpu fpv4-sp-d16
 6248              	HAL_TIM_IC_Stop:
 6249              		@ args = 0, pretend = 0, frame = 0
 6250              		@ frame_needed = 0, uses_anonymous_args = 0
 6251 0000 38B5     		push	{r3, r4, r5, lr}
ARM GAS  /tmp/cc01cbqV.s 			page 107


 6252 0002 0446     		mov	r4, r0
 6253 0004 0D46     		mov	r5, r1
 6254 0006 0022     		movs	r2, #0
 6255 0008 0068     		ldr	r0, [r0]
 6256 000a FFF7FEFF 		bl	TIM_CCxChannelCmd
 6257 000e 2368     		ldr	r3, [r4]
 6258 0010 196A     		ldr	r1, [r3, #32]
 6259 0012 41F21112 		movw	r2, #4369
 6260 0016 1142     		tst	r1, r2
 6261 0018 08D1     		bne	.L859
 6262 001a 196A     		ldr	r1, [r3, #32]
 6263 001c 40F24442 		movw	r2, #1092
 6264 0020 1142     		tst	r1, r2
 6265 0022 03D1     		bne	.L859
 6266 0024 1A68     		ldr	r2, [r3]
 6267 0026 22F00102 		bic	r2, r2, #1
 6268 002a 1A60     		str	r2, [r3]
 6269              	.L859:
 6270 002c 45B9     		cbnz	r5, .L860
 6271 002e 0123     		movs	r3, #1
 6272 0030 84F83E30 		strb	r3, [r4, #62]
 6273              	.L861:
 6274 0034 A5B9     		cbnz	r5, .L864
 6275 0036 0123     		movs	r3, #1
 6276 0038 84F84230 		strb	r3, [r4, #66]
 6277              	.L865:
 6278 003c 0020     		movs	r0, #0
 6279 003e 38BD     		pop	{r3, r4, r5, pc}
 6280              	.L860:
 6281 0040 042D     		cmp	r5, #4
 6282 0042 05D0     		beq	.L869
 6283 0044 082D     		cmp	r5, #8
 6284 0046 07D0     		beq	.L870
 6285 0048 0123     		movs	r3, #1
 6286 004a 84F84130 		strb	r3, [r4, #65]
 6287 004e F1E7     		b	.L861
 6288              	.L869:
 6289 0050 0123     		movs	r3, #1
 6290 0052 84F83F30 		strb	r3, [r4, #63]
 6291 0056 EDE7     		b	.L861
 6292              	.L870:
 6293 0058 0123     		movs	r3, #1
 6294 005a 84F84030 		strb	r3, [r4, #64]
 6295 005e E9E7     		b	.L861
 6296              	.L864:
 6297 0060 042D     		cmp	r5, #4
 6298 0062 05D0     		beq	.L871
 6299 0064 082D     		cmp	r5, #8
 6300 0066 07D0     		beq	.L872
 6301 0068 0123     		movs	r3, #1
 6302 006a 84F84530 		strb	r3, [r4, #69]
 6303 006e E5E7     		b	.L865
 6304              	.L871:
 6305 0070 0123     		movs	r3, #1
 6306 0072 84F84330 		strb	r3, [r4, #67]
 6307 0076 E1E7     		b	.L865
 6308              	.L872:
ARM GAS  /tmp/cc01cbqV.s 			page 108


 6309 0078 0123     		movs	r3, #1
 6310 007a 84F84430 		strb	r3, [r4, #68]
 6311 007e DDE7     		b	.L865
 6313              		.section	.text.HAL_TIM_IC_Start_IT,"ax",%progbits
 6314              		.align	1
 6315              		.global	HAL_TIM_IC_Start_IT
 6316              		.syntax unified
 6317              		.thumb
 6318              		.thumb_func
 6319              		.fpu fpv4-sp-d16
 6321              	HAL_TIM_IC_Start_IT:
 6322              		@ args = 0, pretend = 0, frame = 0
 6323              		@ frame_needed = 0, uses_anonymous_args = 0
 6324 0000 10B5     		push	{r4, lr}
 6325 0002 0446     		mov	r4, r0
 6326 0004 0B46     		mov	r3, r1
 6327 0006 09BB     		cbnz	r1, .L874
 6328 0008 90F83E00 		ldrb	r0, [r0, #62]	@ zero_extendqisi2
 6329 000c C0B2     		uxtb	r0, r0
 6330              	.L875:
 6331 000e 6BBB     		cbnz	r3, .L878
 6332 0010 94F84220 		ldrb	r2, [r4, #66]	@ zero_extendqisi2
 6333 0014 D2B2     		uxtb	r2, r2
 6334              	.L879:
 6335 0016 0128     		cmp	r0, #1
 6336 0018 40F0A480 		bne	.L899
 6337 001c 012A     		cmp	r2, #1
 6338 001e 40F0A280 		bne	.L882
 6339 0022 9BBB     		cbnz	r3, .L883
 6340 0024 0221     		movs	r1, #2
 6341 0026 84F83E10 		strb	r1, [r4, #62]
 6342              	.L884:
 6343 002a 002B     		cmp	r3, #0
 6344 002c 3ED1     		bne	.L887
 6345 002e 0221     		movs	r1, #2
 6346 0030 84F84210 		strb	r1, [r4, #66]
 6347              	.L888:
 6348 0034 0C2B     		cmp	r3, #12
 6349 0036 00F29780 		bhi	.L900
 6350 003a DFE803F0 		tbb	[pc, r3]
 6351              	.L892:
 6352 003e 47       		.byte	(.L895-.L892)/2
 6353 003f 95       		.byte	(.L900-.L892)/2
 6354 0040 95       		.byte	(.L900-.L892)/2
 6355 0041 95       		.byte	(.L900-.L892)/2
 6356 0042 76       		.byte	(.L894-.L892)/2
 6357 0043 95       		.byte	(.L900-.L892)/2
 6358 0044 95       		.byte	(.L900-.L892)/2
 6359 0045 95       		.byte	(.L900-.L892)/2
 6360 0046 7C       		.byte	(.L893-.L892)/2
 6361 0047 95       		.byte	(.L900-.L892)/2
 6362 0048 95       		.byte	(.L900-.L892)/2
 6363 0049 95       		.byte	(.L900-.L892)/2
 6364 004a 82       		.byte	(.L891-.L892)/2
 6365 004b 00       		.p2align 1
 6366              	.L874:
 6367 004c 0429     		cmp	r1, #4
ARM GAS  /tmp/cc01cbqV.s 			page 109


 6368 004e 05D0     		beq	.L903
 6369 0050 0829     		cmp	r1, #8
 6370 0052 07D0     		beq	.L904
 6371 0054 90F84100 		ldrb	r0, [r0, #65]	@ zero_extendqisi2
 6372 0058 C0B2     		uxtb	r0, r0
 6373 005a D8E7     		b	.L875
 6374              	.L903:
 6375 005c 90F83F00 		ldrb	r0, [r0, #63]	@ zero_extendqisi2
 6376 0060 C0B2     		uxtb	r0, r0
 6377 0062 D4E7     		b	.L875
 6378              	.L904:
 6379 0064 90F84000 		ldrb	r0, [r0, #64]	@ zero_extendqisi2
 6380 0068 C0B2     		uxtb	r0, r0
 6381 006a D0E7     		b	.L875
 6382              	.L878:
 6383 006c 042B     		cmp	r3, #4
 6384 006e 05D0     		beq	.L905
 6385 0070 082B     		cmp	r3, #8
 6386 0072 07D0     		beq	.L906
 6387 0074 94F84520 		ldrb	r2, [r4, #69]	@ zero_extendqisi2
 6388 0078 D2B2     		uxtb	r2, r2
 6389 007a CCE7     		b	.L879
 6390              	.L905:
 6391 007c 94F84320 		ldrb	r2, [r4, #67]	@ zero_extendqisi2
 6392 0080 D2B2     		uxtb	r2, r2
 6393 0082 C8E7     		b	.L879
 6394              	.L906:
 6395 0084 94F84420 		ldrb	r2, [r4, #68]	@ zero_extendqisi2
 6396 0088 D2B2     		uxtb	r2, r2
 6397 008a C4E7     		b	.L879
 6398              	.L883:
 6399 008c 042B     		cmp	r3, #4
 6400 008e 05D0     		beq	.L907
 6401 0090 082B     		cmp	r3, #8
 6402 0092 07D0     		beq	.L908
 6403 0094 0221     		movs	r1, #2
 6404 0096 84F84110 		strb	r1, [r4, #65]
 6405 009a C6E7     		b	.L884
 6406              	.L907:
 6407 009c 0221     		movs	r1, #2
 6408 009e 84F83F10 		strb	r1, [r4, #63]
 6409 00a2 C2E7     		b	.L884
 6410              	.L908:
 6411 00a4 0221     		movs	r1, #2
 6412 00a6 84F84010 		strb	r1, [r4, #64]
 6413 00aa BEE7     		b	.L884
 6414              	.L887:
 6415 00ac 042B     		cmp	r3, #4
 6416 00ae 05D0     		beq	.L909
 6417 00b0 082B     		cmp	r3, #8
 6418 00b2 07D0     		beq	.L910
 6419 00b4 0221     		movs	r1, #2
 6420 00b6 84F84510 		strb	r1, [r4, #69]
 6421 00ba BBE7     		b	.L888
 6422              	.L909:
 6423 00bc 0221     		movs	r1, #2
 6424 00be 84F84310 		strb	r1, [r4, #67]
ARM GAS  /tmp/cc01cbqV.s 			page 110


 6425 00c2 B7E7     		b	.L888
 6426              	.L910:
 6427 00c4 0221     		movs	r1, #2
 6428 00c6 84F84410 		strb	r1, [r4, #68]
 6429 00ca B3E7     		b	.L888
 6430              	.L895:
 6431 00cc 2168     		ldr	r1, [r4]
 6432 00ce CA68     		ldr	r2, [r1, #12]
 6433 00d0 42F00202 		orr	r2, r2, #2
 6434 00d4 CA60     		str	r2, [r1, #12]
 6435              	.L896:
 6436 00d6 0122     		movs	r2, #1
 6437 00d8 1946     		mov	r1, r3
 6438 00da 2068     		ldr	r0, [r4]
 6439 00dc FFF7FEFF 		bl	TIM_CCxChannelCmd
 6440 00e0 2368     		ldr	r3, [r4]
 6441 00e2 234A     		ldr	r2, .L911
 6442 00e4 9342     		cmp	r3, r2
 6443 00e6 32D0     		beq	.L897
 6444 00e8 B3F1804F 		cmp	r3, #1073741824
 6445 00ec 2FD0     		beq	.L897
 6446 00ee A2F57C42 		sub	r2, r2, #64512
 6447 00f2 9342     		cmp	r3, r2
 6448 00f4 2BD0     		beq	.L897
 6449 00f6 02F58062 		add	r2, r2, #1024
 6450 00fa 9342     		cmp	r3, r2
 6451 00fc 27D0     		beq	.L897
 6452 00fe 02F58062 		add	r2, r2, #1024
 6453 0102 9342     		cmp	r3, r2
 6454 0104 23D0     		beq	.L897
 6455 0106 02F57842 		add	r2, r2, #63488
 6456 010a 9342     		cmp	r3, r2
 6457 010c 1FD0     		beq	.L897
 6458 010e 02F57052 		add	r2, r2, #15360
 6459 0112 9342     		cmp	r3, r2
 6460 0114 1BD0     		beq	.L897
 6461 0116 A2F59432 		sub	r2, r2, #75776
 6462 011a 9342     		cmp	r3, r2
 6463 011c 17D0     		beq	.L897
 6464 011e 1A68     		ldr	r2, [r3]
 6465 0120 42F00102 		orr	r2, r2, #1
 6466 0124 1A60     		str	r2, [r3]
 6467 0126 0020     		movs	r0, #0
 6468 0128 1DE0     		b	.L882
 6469              	.L894:
 6470 012a 2168     		ldr	r1, [r4]
 6471 012c CA68     		ldr	r2, [r1, #12]
 6472 012e 42F00402 		orr	r2, r2, #4
 6473 0132 CA60     		str	r2, [r1, #12]
 6474 0134 CFE7     		b	.L896
 6475              	.L893:
 6476 0136 2168     		ldr	r1, [r4]
 6477 0138 CA68     		ldr	r2, [r1, #12]
 6478 013a 42F00802 		orr	r2, r2, #8
 6479 013e CA60     		str	r2, [r1, #12]
 6480 0140 C9E7     		b	.L896
 6481              	.L891:
ARM GAS  /tmp/cc01cbqV.s 			page 111


 6482 0142 2168     		ldr	r1, [r4]
 6483 0144 CA68     		ldr	r2, [r1, #12]
 6484 0146 42F01002 		orr	r2, r2, #16
 6485 014a CA60     		str	r2, [r1, #12]
 6486 014c C3E7     		b	.L896
 6487              	.L897:
 6488 014e 9A68     		ldr	r2, [r3, #8]
 6489 0150 02F00702 		and	r2, r2, #7
 6490 0154 062A     		cmp	r2, #6
 6491 0156 09D0     		beq	.L901
 6492 0158 1A68     		ldr	r2, [r3]
 6493 015a 42F00102 		orr	r2, r2, #1
 6494 015e 1A60     		str	r2, [r3]
 6495 0160 0020     		movs	r0, #0
 6496 0162 00E0     		b	.L882
 6497              	.L899:
 6498 0164 0120     		movs	r0, #1
 6499              	.L882:
 6500 0166 10BD     		pop	{r4, pc}
 6501              	.L900:
 6502 0168 1046     		mov	r0, r2
 6503 016a FCE7     		b	.L882
 6504              	.L901:
 6505 016c 0020     		movs	r0, #0
 6506 016e FAE7     		b	.L882
 6507              	.L912:
 6508              		.align	2
 6509              	.L911:
 6510 0170 00000140 		.word	1073807360
 6512              		.section	.text.HAL_TIM_IC_Stop_IT,"ax",%progbits
 6513              		.align	1
 6514              		.global	HAL_TIM_IC_Stop_IT
 6515              		.syntax unified
 6516              		.thumb
 6517              		.thumb_func
 6518              		.fpu fpv4-sp-d16
 6520              	HAL_TIM_IC_Stop_IT:
 6521              		@ args = 0, pretend = 0, frame = 0
 6522              		@ frame_needed = 0, uses_anonymous_args = 0
 6523 0000 38B5     		push	{r3, r4, r5, lr}
 6524 0002 0546     		mov	r5, r0
 6525 0004 0C46     		mov	r4, r1
 6526 0006 0C29     		cmp	r1, #12
 6527 0008 60D8     		bhi	.L929
 6528 000a DFE801F0 		tbb	[pc, r1]
 6529              	.L916:
 6530 000e 07       		.byte	(.L919-.L916)/2
 6531 000f 5F       		.byte	(.L929-.L916)/2
 6532 0010 5F       		.byte	(.L929-.L916)/2
 6533 0011 5F       		.byte	(.L929-.L916)/2
 6534 0012 2A       		.byte	(.L918-.L916)/2
 6535 0013 5F       		.byte	(.L929-.L916)/2
 6536 0014 5F       		.byte	(.L929-.L916)/2
 6537 0015 5F       		.byte	(.L929-.L916)/2
 6538 0016 30       		.byte	(.L917-.L916)/2
 6539 0017 5F       		.byte	(.L929-.L916)/2
 6540 0018 5F       		.byte	(.L929-.L916)/2
ARM GAS  /tmp/cc01cbqV.s 			page 112


 6541 0019 5F       		.byte	(.L929-.L916)/2
 6542 001a 36       		.byte	(.L915-.L916)/2
 6543 001b 00       		.p2align 1
 6544              	.L919:
 6545 001c 0268     		ldr	r2, [r0]
 6546 001e D368     		ldr	r3, [r2, #12]
 6547 0020 23F00203 		bic	r3, r3, #2
 6548 0024 D360     		str	r3, [r2, #12]
 6549              	.L920:
 6550 0026 0022     		movs	r2, #0
 6551 0028 2146     		mov	r1, r4
 6552 002a 2868     		ldr	r0, [r5]
 6553 002c FFF7FEFF 		bl	TIM_CCxChannelCmd
 6554 0030 2B68     		ldr	r3, [r5]
 6555 0032 196A     		ldr	r1, [r3, #32]
 6556 0034 41F21112 		movw	r2, #4369
 6557 0038 1142     		tst	r1, r2
 6558 003a 08D1     		bne	.L921
 6559 003c 196A     		ldr	r1, [r3, #32]
 6560 003e 40F24442 		movw	r2, #1092
 6561 0042 1142     		tst	r1, r2
 6562 0044 03D1     		bne	.L921
 6563 0046 1A68     		ldr	r2, [r3]
 6564 0048 22F00102 		bic	r2, r2, #1
 6565 004c 1A60     		str	r2, [r3]
 6566              	.L921:
 6567 004e D4B9     		cbnz	r4, .L922
 6568 0050 0123     		movs	r3, #1
 6569 0052 85F83E30 		strb	r3, [r5, #62]
 6570              	.L923:
 6571 0056 34BB     		cbnz	r4, .L926
 6572 0058 0123     		movs	r3, #1
 6573 005a 85F84230 		strb	r3, [r5, #66]
 6574 005e 0020     		movs	r0, #0
 6575 0060 35E0     		b	.L914
 6576              	.L918:
 6577 0062 0268     		ldr	r2, [r0]
 6578 0064 D368     		ldr	r3, [r2, #12]
 6579 0066 23F00403 		bic	r3, r3, #4
 6580 006a D360     		str	r3, [r2, #12]
 6581 006c DBE7     		b	.L920
 6582              	.L917:
 6583 006e 0268     		ldr	r2, [r0]
 6584 0070 D368     		ldr	r3, [r2, #12]
 6585 0072 23F00803 		bic	r3, r3, #8
 6586 0076 D360     		str	r3, [r2, #12]
 6587 0078 D5E7     		b	.L920
 6588              	.L915:
 6589 007a 0268     		ldr	r2, [r0]
 6590 007c D368     		ldr	r3, [r2, #12]
 6591 007e 23F01003 		bic	r3, r3, #16
 6592 0082 D360     		str	r3, [r2, #12]
 6593 0084 CFE7     		b	.L920
 6594              	.L922:
 6595 0086 042C     		cmp	r4, #4
 6596 0088 05D0     		beq	.L931
 6597 008a 082C     		cmp	r4, #8
ARM GAS  /tmp/cc01cbqV.s 			page 113


 6598 008c 07D0     		beq	.L932
 6599 008e 0123     		movs	r3, #1
 6600 0090 85F84130 		strb	r3, [r5, #65]
 6601 0094 DFE7     		b	.L923
 6602              	.L931:
 6603 0096 0123     		movs	r3, #1
 6604 0098 85F83F30 		strb	r3, [r5, #63]
 6605 009c DBE7     		b	.L923
 6606              	.L932:
 6607 009e 0123     		movs	r3, #1
 6608 00a0 85F84030 		strb	r3, [r5, #64]
 6609 00a4 D7E7     		b	.L923
 6610              	.L926:
 6611 00a6 042C     		cmp	r4, #4
 6612 00a8 06D0     		beq	.L933
 6613 00aa 082C     		cmp	r4, #8
 6614 00ac 09D0     		beq	.L934
 6615 00ae 0123     		movs	r3, #1
 6616 00b0 85F84530 		strb	r3, [r5, #69]
 6617 00b4 0020     		movs	r0, #0
 6618 00b6 0AE0     		b	.L914
 6619              	.L933:
 6620 00b8 0123     		movs	r3, #1
 6621 00ba 85F84330 		strb	r3, [r5, #67]
 6622 00be 0020     		movs	r0, #0
 6623 00c0 05E0     		b	.L914
 6624              	.L934:
 6625 00c2 0123     		movs	r3, #1
 6626 00c4 85F84430 		strb	r3, [r5, #68]
 6627 00c8 0020     		movs	r0, #0
 6628 00ca 00E0     		b	.L914
 6629              	.L929:
 6630 00cc 0120     		movs	r0, #1
 6631              	.L914:
 6632 00ce 38BD     		pop	{r3, r4, r5, pc}
 6634              		.section	.text.HAL_TIM_IC_Start_DMA,"ax",%progbits
 6635              		.align	1
 6636              		.global	HAL_TIM_IC_Start_DMA
 6637              		.syntax unified
 6638              		.thumb
 6639              		.thumb_func
 6640              		.fpu fpv4-sp-d16
 6642              	HAL_TIM_IC_Start_DMA:
 6643              		@ args = 0, pretend = 0, frame = 0
 6644              		@ frame_needed = 0, uses_anonymous_args = 0
 6645 0000 2DE9F041 		push	{r4, r5, r6, r7, r8, lr}
 6646 0004 0446     		mov	r4, r0
 6647 0006 1646     		mov	r6, r2
 6648 0008 1F46     		mov	r7, r3
 6649 000a 0D46     		mov	r5, r1
 6650 000c 0029     		cmp	r1, #0
 6651 000e 32D1     		bne	.L936
 6652 0010 90F83E10 		ldrb	r1, [r0, #62]	@ zero_extendqisi2
 6653 0014 C8B2     		uxtb	r0, r1
 6654              	.L937:
 6655 0016 002D     		cmp	r5, #0
 6656 0018 3DD1     		bne	.L940
ARM GAS  /tmp/cc01cbqV.s 			page 114


 6657 001a 94F84280 		ldrb	r8, [r4, #66]	@ zero_extendqisi2
 6658 001e 5FFA88F8 		uxtb	r8, r8
 6659              	.L941:
 6660 0022 0228     		cmp	r0, #2
 6661 0024 00F00481 		beq	.L944
 6662 0028 B8F1020F 		cmp	r8, #2
 6663 002c 00F0FD80 		beq	.L962
 6664 0030 0128     		cmp	r0, #1
 6665 0032 40F0FC80 		bne	.L963
 6666 0036 B8F1010F 		cmp	r8, #1
 6667 003a 40F0F980 		bne	.L944
 6668 003e 002E     		cmp	r6, #0
 6669 0040 3CD0     		beq	.L971
 6670              	.L945:
 6671 0042 002D     		cmp	r5, #0
 6672 0044 3ED1     		bne	.L946
 6673 0046 0223     		movs	r3, #2
 6674 0048 84F83E30 		strb	r3, [r4, #62]
 6675              	.L947:
 6676 004c 002D     		cmp	r5, #0
 6677 004e 49D1     		bne	.L950
 6678 0050 0223     		movs	r3, #2
 6679 0052 84F84230 		strb	r3, [r4, #66]
 6680              	.L951:
 6681 0056 0122     		movs	r2, #1
 6682 0058 2946     		mov	r1, r5
 6683 005a 2068     		ldr	r0, [r4]
 6684 005c FFF7FEFF 		bl	TIM_CCxChannelCmd
 6685 0060 0C2D     		cmp	r5, #12
 6686 0062 68D8     		bhi	.L954
 6687 0064 DFE805F0 		tbb	[pc, r5]
 6688              	.L956:
 6689 0068 4E       		.byte	(.L959-.L956)/2
 6690 0069 67       		.byte	(.L954-.L956)/2
 6691 006a 67       		.byte	(.L954-.L956)/2
 6692 006b 67       		.byte	(.L954-.L956)/2
 6693 006c 8C       		.byte	(.L958-.L956)/2
 6694 006d 67       		.byte	(.L954-.L956)/2
 6695 006e 67       		.byte	(.L954-.L956)/2
 6696 006f 67       		.byte	(.L954-.L956)/2
 6697 0070 A5       		.byte	(.L957-.L956)/2
 6698 0071 67       		.byte	(.L954-.L956)/2
 6699 0072 67       		.byte	(.L954-.L956)/2
 6700 0073 67       		.byte	(.L954-.L956)/2
 6701 0074 BE       		.byte	(.L955-.L956)/2
 6702 0075 00       		.p2align 1
 6703              	.L936:
 6704 0076 0429     		cmp	r1, #4
 6705 0078 05D0     		beq	.L972
 6706 007a 0829     		cmp	r1, #8
 6707 007c 07D0     		beq	.L973
 6708 007e 90F84110 		ldrb	r1, [r0, #65]	@ zero_extendqisi2
 6709 0082 C8B2     		uxtb	r0, r1
 6710 0084 C7E7     		b	.L937
 6711              	.L972:
 6712 0086 90F83F10 		ldrb	r1, [r0, #63]	@ zero_extendqisi2
 6713 008a C8B2     		uxtb	r0, r1
ARM GAS  /tmp/cc01cbqV.s 			page 115


 6714 008c C3E7     		b	.L937
 6715              	.L973:
 6716 008e 90F84000 		ldrb	r0, [r0, #64]	@ zero_extendqisi2
 6717 0092 C0B2     		uxtb	r0, r0
 6718 0094 BFE7     		b	.L937
 6719              	.L940:
 6720 0096 042D     		cmp	r5, #4
 6721 0098 06D0     		beq	.L974
 6722 009a 082D     		cmp	r5, #8
 6723 009c 09D0     		beq	.L975
 6724 009e 94F84580 		ldrb	r8, [r4, #69]	@ zero_extendqisi2
 6725 00a2 5FFA88F8 		uxtb	r8, r8
 6726 00a6 BCE7     		b	.L941
 6727              	.L974:
 6728 00a8 94F84380 		ldrb	r8, [r4, #67]	@ zero_extendqisi2
 6729 00ac 5FFA88F8 		uxtb	r8, r8
 6730 00b0 B7E7     		b	.L941
 6731              	.L975:
 6732 00b2 94F84480 		ldrb	r8, [r4, #68]	@ zero_extendqisi2
 6733 00b6 5FFA88F8 		uxtb	r8, r8
 6734 00ba B2E7     		b	.L941
 6735              	.L971:
 6736 00bc 002F     		cmp	r7, #0
 6737 00be C0D0     		beq	.L945
 6738 00c0 4046     		mov	r0, r8
 6739 00c2 B5E0     		b	.L944
 6740              	.L946:
 6741 00c4 042D     		cmp	r5, #4
 6742 00c6 05D0     		beq	.L976
 6743 00c8 082D     		cmp	r5, #8
 6744 00ca 07D0     		beq	.L977
 6745 00cc 0223     		movs	r3, #2
 6746 00ce 84F84130 		strb	r3, [r4, #65]
 6747 00d2 BBE7     		b	.L947
 6748              	.L976:
 6749 00d4 0223     		movs	r3, #2
 6750 00d6 84F83F30 		strb	r3, [r4, #63]
 6751 00da B7E7     		b	.L947
 6752              	.L977:
 6753 00dc 0223     		movs	r3, #2
 6754 00de 84F84030 		strb	r3, [r4, #64]
 6755 00e2 B3E7     		b	.L947
 6756              	.L950:
 6757 00e4 042D     		cmp	r5, #4
 6758 00e6 05D0     		beq	.L978
 6759 00e8 082D     		cmp	r5, #8
 6760 00ea 07D0     		beq	.L979
 6761 00ec 0223     		movs	r3, #2
 6762 00ee 84F84530 		strb	r3, [r4, #69]
 6763 00f2 B0E7     		b	.L951
 6764              	.L978:
 6765 00f4 0223     		movs	r3, #2
 6766 00f6 84F84330 		strb	r3, [r4, #67]
 6767 00fa ACE7     		b	.L951
 6768              	.L979:
 6769 00fc 0223     		movs	r3, #2
 6770 00fe 84F84430 		strb	r3, [r4, #68]
ARM GAS  /tmp/cc01cbqV.s 			page 116


 6771 0102 A8E7     		b	.L951
 6772              	.L959:
 6773 0104 636A     		ldr	r3, [r4, #36]
 6774 0106 504A     		ldr	r2, .L980
 6775 0108 DA63     		str	r2, [r3, #60]
 6776 010a 636A     		ldr	r3, [r4, #36]
 6777 010c 4F4A     		ldr	r2, .L980+4
 6778 010e 1A64     		str	r2, [r3, #64]
 6779 0110 636A     		ldr	r3, [r4, #36]
 6780 0112 4F4A     		ldr	r2, .L980+8
 6781 0114 DA64     		str	r2, [r3, #76]
 6782 0116 2168     		ldr	r1, [r4]
 6783 0118 3B46     		mov	r3, r7
 6784 011a 3246     		mov	r2, r6
 6785 011c 3431     		adds	r1, r1, #52
 6786 011e 606A     		ldr	r0, [r4, #36]
 6787 0120 FFF7FEFF 		bl	HAL_DMA_Start_IT
 6788 0124 0028     		cmp	r0, #0
 6789 0126 40F08580 		bne	.L965
 6790 012a 2268     		ldr	r2, [r4]
